
riscv64-baremetal/core_portme.o:     file format elf64-littleriscv

Contents of section .text:
 0000 01458280 8280f327 00c01707 00002330  .E.....'......#0
 0010 f7008280 f32700c0 17070000 2330f700  .....'......#0..
 0020 82801705 00000335 05009707 000083b7  .......5........
 0030 07001d8d 82805375 35d29707 000087b7  ......Su5.......
 0040 07005375 f51a8280 85472300 f5008280  ..Su.....G#.....
 0050 23000500 8280                        #.....          
Contents of section .srodata.cst8:
 0000 00000000 65cdcd41                    ....e..A        
Contents of section .sdata:
 0000 01000000 66000000                    ....f...        
Contents of section .comment:
 0000 00474343 3a202867 32656535 65343330  .GCC: (g2ee5e430
 0010 30313829 2031322e 322e3000           018) 12.2.0.    
Contents of section .riscv.attributes:
 0000 41380000 00726973 63760001 2e000000  A8...riscv......
 0010 04100572 76363469 3270305f 6d327030  ...rv64i2p0_m2p0
 0020 5f613270 305f6632 70305f64 3270305f  _a2p0_f2p0_d2p0_
 0030 63327030 0008010a 0b                 c2p0.....       

Disassembly of section .text:

0000000000000000 <portable_malloc>:
   0:	4501                	li	a0,0
   2:	8082                	ret

0000000000000004 <portable_free>:
   4:	8082                	ret

0000000000000006 <start_time>:
   6:	c00027f3          	rdcycle	a5
   a:	00000717          	auipc	a4,0x0
   e:	00f73023          	sd	a5,0(a4) # a <start_time+0x4>
  12:	8082                	ret

0000000000000014 <stop_time>:
  14:	c00027f3          	rdcycle	a5
  18:	00000717          	auipc	a4,0x0
  1c:	00f73023          	sd	a5,0(a4) # 18 <stop_time+0x4>
  20:	8082                	ret

0000000000000022 <get_time>:
  22:	00000517          	auipc	a0,0x0
  26:	00053503          	ld	a0,0(a0) # 22 <get_time>
  2a:	00000797          	auipc	a5,0x0
  2e:	0007b783          	ld	a5,0(a5) # 2a <get_time+0x8>
  32:	8d1d                	sub	a0,a0,a5
  34:	8082                	ret

0000000000000036 <time_in_secs>:
  36:	d2357553          	fcvt.d.lu	fa0,a0
  3a:	00000797          	auipc	a5,0x0
  3e:	0007b787          	fld	fa5,0(a5) # 3a <time_in_secs+0x4>
  42:	1af57553          	fdiv.d	fa0,fa0,fa5
  46:	8082                	ret

0000000000000048 <portable_init>:
  48:	4785                	li	a5,1
  4a:	00f50023          	sb	a5,0(a0)
  4e:	8082                	ret

0000000000000050 <portable_fini>:
  50:	00050023          	sb	zero,0(a0)
  54:	8082                	ret

Disassembly of section .srodata.cst8:

0000000000000000 <.LC0>:
   0:	0000                	unimp
   2:	0000                	unimp
   4:	cd65                	beqz	a0,fc <portable_fini+0xac>
   6:	41cd                	li	gp,19
