
test_join.out:     file format elf32-littleriscv

Contents of section .text:
 0000 37010240 13010100 b7020200 93820200  7..@............
 0010 b3025140 33025000 1301c1ff 37070000  ..Q@3.P.....7...
 0020 ef008000 73001000 b7170000 93878768  ....s..........h
 0030 03a60700 83a64700 03a78700 83d7c700  ......G.........
 0040 130101fe 232a9100 232c8100 23282101  ....#*..#,..#(!.
 0050 232e1100 2320c100 2322d100 2324e100  #...# ..#"..#$..
 0060 2316f100 9304801b 13041000 13090002  #...............
 0070 13050400 93060100 13041400 13061000  ................
 0080 93850400 ef00400a e31424ff 13050100  ......@...$.....
 0090 ef008012 6f000000 732710dc b7060200  ....o...s'......
 00a0 93860600 93071700 b387d702 37060040  ............7..@
 00b0 13060600 b387c700 3301f000 b387d740  ........3......@
 00c0 3302f000 1301c1ff b7070040 13172700  3..........@..'.
 00d0 93870700 b387e700 03a70700 13050700  ................
 00e0 83a70708 67800700 67800000 731015bc  ....g...g...s...
 00f0 67800000 83470500 638a0700 739017bc  g....G..c...s...
 0100 83471500 13051500 e39a07fe 67800000  .G..........g...
 0110 732510dc 67800000 7310059c 7390159c  s%..g...s...s...
 0120 7310269c 67800000 f32700bc e38e07fe  s.&.g....'......
 0130 b7070040 13172500 93870700 b387e700  ...@..%.........
 0140 23a0b708 23a0d700 7310059c 93078009  #...#...s.......
 0150 7390179c 7350219c 7310059c 7310169c  s...sP!.s...s...
 0160 7350239c 7310059c 73d0109c 7350229c  sP#.s...s...sP".
 0170 f32700bc 67800000 f32700bc e38e07fe  .'..g....'......
 0180 732510dc 7310059c 73d0109c 7350229c  s%..s...s...sP".
 0190 f32700bc 67800000 f32700bc e38e07fe  .'..g....'......
 01a0 f32710dc 7390079c 7350109c 7350229c  .'..s...sP..sP".
 01b0 f32700bc 67800000 130101ff 23261100  .'..g.......#&..
 01c0 eff05ff3 8320c100 13010101 6ff0dffc  .._.. ......o...
 01d0 73d0309c f32700bc e38e07fe 7310059c  s.0..'......s...
 01e0 7350109c 73d0219c f32700dc 732700bc  sP..s.!..'..s'..
 01f0 e39007fe 13050000 67800000 13075000  ........g.....P.
 0200 93070001 13060002 93051000 b356f540  .............V.@
 0210 1307f7ff 63880600 638eb700 3306f640  ....c...c...3..@
 0220 13850600 93d71740 e31207fe 3305a640  .......@....3..@
 0230 67800000 1305e6ff 67800000 b7068000  g.......g.......
 0240 130101ff 13577501 9386f6ff 13d67501  .....Wu.......u.
 0250 33f8a600 23229100 b3f6b600 9374f70f  3...#".......t..
 0260 23202101 1376f60f 1359f501 23261100  # !..v...Y..#&..
 0270 23248100 93d5f501 93070800 13870400  #$..............
 0280 13030900 131e3800 13953600 b388c440  ......8...6....@
 0290 6308b912 6358100f 630c0618 9307f00f  c...cX..c.......
 02a0 6386f410 b7070004 3365f500 1307b001  c.......3e......
 02b0 93071000 634e1701 13070002 33071741  ....cN......3..A
 02c0 3317e500 b3571501 3337e000 b3e7e700  3....W..37......
 02d0 b307fe40 13975700 635c071e 37040004  ...@..W.c\..7...
 02e0 1304f4ff 33f48700 13050400 eff01ff1  ....3...........
 02f0 1305b5ff b317a400 63409526 33079540  ........c@.&3..@
 0300 13041700 13070002 33078740 3397e700  ........3..@3...
 0310 3337e000 b3d78700 b3e7e700 93040000  37..............
 0320 13f77700 630a0700 13f7f700 93064000  ..w.c.........@.
 0330 6304d700 93874700 13975700 635e0718  c.....G...W.c^..
 0340 13871400 9306f00f 13030900 6308d71a  ............c...
 0350 93976700 93d79700 1377f70f 8320c100  ..g......w... ..
 0360 03248100 13157701 b367f500 1315f301  .$....w..g......
 0370 83244100 03290100 33e5a700 13010101  .$A..)..3.......
 0380 67800000 6384080c 33089640 63900420  g...c...3..@c.. 
 0390 630a0e26 1308f8ff 630c0828 9307f00f  c..&....c..(....
 03a0 631ef61e 13890500 13880600 63060814  c...........c...
 03b0 13030000 1307f00f b7074000 6ff01ffa  ..........@.o...
 03c0 63541015 630c060a 9307f00f e380f4fe  cT..c...........
 03d0 b7070004 3365f500 1307b001 93071000  ....3e..........
 03e0 634e1701 13070002 33071741 3317e500  cN......3..A3...
 03f0 b3571501 3337e000 b3e7e700 b387c701  .W..37..........
 0400 13975700 6356070c 93841400 1307f00f  ..W.cV..........
 0410 6386e40e b706007e 13d71700 9386f6ff  c......~........
 0420 93f71700 3377d700 b367f700 6ff05fef  ....3w...g..o._.
 0430 6306050a 9388f8ff b307ae40 e38c08e8  c..........@....
 0440 9307f00f e394f4e6 6ff05ff6 13861400  ........o._.....
 0450 1376e60f 631c0610 639e041a 63020e1e  .v..c...c...c...
 0460 e30e05ee b307ae40 93965700 63d8061e  .......@..W.c...
 0470 b307c541 13890500 6ff09fea 63000506  ...A....o...c...
 0480 9388f8ff b307ae00 e38c08f6 9307f00f  ................
 0490 e394f4f4 6ff09ff1 93841400 13f6e40f  ....o...........
 04a0 63120614 63100718 63020e1c e30805ea  c...c...c.......
 04b0 b307ae00 13975700 93040000 635a0700  ......W.....cZ..
 04c0 370700fc 1307f7ff b3f7e700 93041000  7...............
 04d0 13f77700 e31a07e4 13d83700 9307f00f  ..w.......7.....
 04e0 e386f4ec 93179800 93d79700 13f7f40f  ................
 04f0 13030900 6ff09fe6 13030900 1307f00f  ....o...........
 0500 93070000 6ff09fe5 e38808f8 b3079640  ....o..........@
 0510 6390040c 630e0e12 9387f7ff 638c0714  c...c.......c...
 0520 1307f00f e302e6e8 9306b001 13071000  ................
 0530 63cef600 13070002 3307f740 3317ee00  c.......3..@3...
 0540 b357fe00 3337e000 33e7e700 b307a700  .W..37..3.......
 0550 93040600 6ff0dfea 370700fc 1307f7ff  ....o...7.......
 0560 b384a440 b3f7e700 6ff09fdb 3304ae40  ...@....o...3..@
 0570 93175400 63c20708 e31804d6 13030000  ..T.c...........
 0580 13070000 93070000 6ff05fdd 9307f00f  ........o._.....
 0590 e30af6e0 b7070004 336efe00 1307b001  ........3n......
 05a0 93071000 634e0701 13070002 33070741  ....cN......3..A
 05b0 3317ee00 b3570e01 3337e000 b3e7e700  3....W..37......
 05c0 b307f540 93040600 13890500 6ff09fd0  ...@........o...
 05d0 1307f00f e30ae6dc 37070004 336eee00  ........7...3n..
 05e0 6ff09ff4 9307f00f e38af4f0 b307ae00  o...............
 05f0 93d71700 6ff0dfed 3304c541 13890500  ....o...3..A....
 0600 6ff09fce 13880600 93040600 13890500  o...............
 0610 6ff0dfec 631a0e00 e30c05d8 13890500  o...c...........
 0620 6ff09fd8 e3020ed8 e30205d8 6ff05fd8  o...........o._.
 0630 b307c541 93040600 13890500 6ff09fc9  ...A........o...
 0640 63000502 13830500 93870600 6ff01fd1  c...........o...
 0650 13880600 93040600 6ff05fe8 e39a07e6  ........o._.....
 0660 13030000 93070000 6ff05fcf 93870600  ........o._.....
 0670 6ff0dfce b307ae00 93040600 6ff05fd8  o...........o._.
 0680 130101fc 93577501 232a9102 23225103  .....Wu.#*..#"Q.
 0690 232e7101 93169500 9354f501 232e1102  #.q......T..#...
 06a0 232c8102 23282103 23263103 23244103  #,..#(!.#&1.#$A.
 06b0 23206103 93f7f70f 93da9600 938b0400  # a.............
 06c0 638a0712 1306f00f 6380c714 93963a00  c.......c.....:.
 06d0 37060004 b3eac600 138a17f8 13040000  7...............
 06e0 130b0000 93d77501 93999500 93f7f70f  ......u.........
 06f0 93d99900 13d9f501 638a070c 1307f00f  ........c.......
 0700 638ee702 37070004 93993900 938717f8  c...7.....9.....
 0710 b3e9e900 330afa40 13070000 3364e400  ....3..@....3d..
 0720 b7170000 9387875c 13142400 3304f400  .......\..$.3...
 0730 83270400 b3c42401 67800700 130a1af0  .'....$.g.......
 0740 639c0912 13072000 6f00c008 938a0900  c..... .o.......
 0750 930b0900 130b0700 93071000 6302fb18  ............c...
 0760 63060b12 93072000 630afb04 93073000  c..... .c.....0.
 0770 631efb10 93040000 9307f00f b7064000  c.............@.
 0780 8320c103 03248103 13957701 9394f401  . ...$....w.....
 0790 3365d500 03290103 8329c102 032a8102  3e...)...)...*..
 07a0 832a4102 032b0102 832bc101 33659500  .*A..+...+..3e..
 07b0 83244103 13010104 67800000 93840b00  .$A.....g.......
 07c0 9307f00f 93060000 6ff09ffb 63960908  ........o...c...
 07d0 13071000 3364e400 b7170000 93878760  ....3d.........`
 07e0 13142400 3304f400 83270400 b3c42401  ..$.3....'....$.
 07f0 67800700 639c0a02 13044000 130a0000  g...c.....@.....
 0800 130b1000 6ff01fee 639a0a00 13048000  ....o...c.......
 0810 130af00f 130b2000 6ff0dfec 1304c000  ...... .o.......
 0820 130af00f 130b3000 6ff0dfeb 13850a00  ......0.o.......
 0830 2326b100 eff09f9c 9307b5ff b39afa00  #&..............
 0840 9307a0f8 8325c100 338aa740 13040000  .....%..3..@....
 0850 130b0000 6ff01fe9 13850900 eff01f9a  ....o...........
 0860 1307b5ff b307aa00 b399e900 138a6707  ..............g.
 0870 13070000 6ff09fea 13073000 6ff01fea  ....o.....0.o...
 0880 93070000 93060000 6ff09fef 93840b00  ........o.......
 0890 1307fa07 6356e006 93f77a00 638a0700  ....cV....z.c...
 08a0 93f7fa00 93064000 6384d700 938a4a00  ......@.c.....J.
 08b0 93974a00 63da0700 b70700f8 9387f7ff  ..J.c...........
 08c0 b3fafa00 13070a08 9307e00f e3cae7ee  ................
 08d0 93966a00 93d69600 9377f70f 6ff05fea  ..j......w..o._.
 08e0 93840b00 93070000 93060000 6ff05fe9  ............o._.
 08f0 930b0900 130b0700 930a0000 6ff0dfe5  ............o...
 0900 13061000 3306e640 630a0700 1307b001  ....3..@c.......
 0910 93070000 93060000 e344c7e6 9307ea09  .........D......
 0920 b397fa00 b3d6ca00 b33af000 b3e65601  .........:....V.
 0930 93f77600 638a0700 93f7f600 13074000  ..v.c.........@.
 0940 6384e700 93864600 93975600 63da070c  c.....F...V.c...
 0950 93071000 93060000 6ff09fe2 37070100  ........o...7...
 0960 13955900 1307f7ff 93570501 3377e500  ..Y......W..3w..
 0970 63f43a09 b3d5fa02 130afaff 13860a00  c.:.............
 0980 93060000 3308b702 3376f602 13160601  ....3...3v......
 0990 b366d600 63fe0601 b386a600 1386f5ff  .f..c...........
 09a0 63eca606 63fa0607 9385e5ff b386a600  c...c...........
 09b0 b3860641 b3daf602 b3f6f602 b387ea02  ...A............
 09c0 13970601 637ef700 3307a700 9386faff  ....c~..3.......
 09d0 6360a704 637ef702 938aeaff 3307a700  c`..c~......3...
 09e0 93960501 3307f740 b3e65601 3337e000  ....3..@..V.37..
 09f0 b3eae600 6ff0dfe9 13d61a00 b355f602  ....o........U..
 0a00 9396fa01 93d60601 3308b702 6ff0dff7  ........3...o...
 0a10 938a0600 6ff0dffc 93050600 6ff05ff9  ....o.......o._.
 0a20 93966600 93d69600 93070000 6ff05fd5  ..f.........o._.
 0a30 130101ff 23261100 23248100 23229100  ....#&..#$..#"..
 0a40 630a0504 1357f541 b344a700 b384e440  c....W.A.D.....@
 0a50 93070500 13850400 13d4f701 eff00ffa  ................
 0a60 9307e009 b387a740 13076009 93060500  .......@..`.....
 0a70 634af704 13078000 13f5f70f 6356d700  cJ..........cV..
 0a80 938686ff b394d400 93949400 93d49400  ................
 0a90 6f000001 13040000 13050000 93040000  o...............
 0aa0 8320c100 9317f401 03248100 13157501  . .......$....u.
 0ab0 33659500 3365f500 83244100 13010101  3e..3e...$A.....
 0ac0 67800000 13079009 6350f702 1305b501  g.......cP......
 0ad0 13075000 3395a400 3307d740 b3d4e400  ..P.3...3..@....
 0ae0 3335a000 b3e4a400 13075000 6356d700  35........P.cV..
 0af0 1387b6ff b394e400 370600fc 1306f6ff  ........7.......
 0b00 93f57400 33f7c400 63840502 93f4f400  ..t.3...c.......
 0b10 93054000 638eb400 13074700 93155700  ..@.c.....G...W.
 0b20 63d80500 9307f009 3377c700 b387d740  c.......3w.....@
 0b30 93146700 93d49400 13f5f70f 6ff05ff6  ..g.........o._.
 0b40 130101ff 23261100 23248100 63080504  ....#&..#$..c...
 0b50 13040500 eff08fea 9307e009 b387a740  ...............@
 0b60 13076009 634cf704 13078000 93f7f70f  ..`.cL..........
 0b70 6356a700 130585ff 3314a400 13149400  cV......3.......
 0b80 13549400 13957701 8320c100 33658500  .T....w.. ..3e..
 0b90 03248100 13010101 67800000 93070000  .$......g.......
 0ba0 13040000 13957701 8320c100 33658500  ......w.. ..3e..
 0bb0 03248100 13010101 67800000 13079009  .$......g.......
 0bc0 6350f702 1307b501 93065000 3317e400  cP........P.3...
 0bd0 b386a640 3337e000 3354d400 33648700  ...@37..3T..3d..
 0be0 13075000 6356a700 1307b5ff 3314e400  ..P.cV......3...
 0bf0 b70600fc 9386f6ff 13767400 3377d400  .........vt.3w..
 0c00 63040602 1374f400 13064000 630ec400  c....t....@.c...
 0c10 13074700 13165700 63580600 9307f009  ..G...W.cX......
 0c20 3377d700 b387a740 13146700 93f7f70f  3w.....@..g.....
 0c30 13549400 13957701 8320c100 33658500  .T....w.. ..3e..
 0c40 03248100 13010101 67800000 93567501  .$......g....Vu.
 0c50 37078000 1307f7ff 13d67501 93f6f60f  7.........u.....
 0c60 1308f00f b378a700 9357f501 3377b700  .....x...W..3w..
 0c70 1376f60f 13d5f501 63820603 63040603  .v......c...c...
 0c80 63980604 93b51800 631e0602 631c0702  c.......c...c...
 0c90 13050000 639e0800 67800000 63920806  ....c...g...c...
 0ca0 6318d602 631e0704 638c0600 6388a702  c...c...c...c...
 0cb0 13051000 e38207fe 1305f0ff 67800000  ............g...
 0cc0 93b51800 e38405fe e30805fe 67800000  ............g...
 0cd0 e31e06fc e31c07fc 6ff09ffd 634cd600  ........o...cL..
 0ce0 e3c4c6fe 63681701 e3e0e8fe 13050000  ....ch..........
 0cf0 67800000 e31205fc 13051000 67800000  g...........g...
 0d00 1305e0ff 67800000 93567501 37078000  ....g....Vu.7...
 0d10 1307f7ff 13d67501 93f6f60f 1308f00f  ......u.........
 0d20 b378a700 9357f501 3377b700 1376f60f  .x...W..3w...v..
 0d30 13d5f501 63820603 63040603 639c0604  ....c...c...c...
 0d40 93b51800 63140602 63120702 13050000  ....c...c.......
 0d50 63920802 67800000 63960802 631cd602  c...g...c...c...
 0d60 63120702 63960600 93b51800 63900502  c...c.......c...
 0d70 6388a702 13051000 e38e07fc 1305f0ff  c...............
 0d80 67800000 13052000 67800000 e30805fe  g..... .g.......
 0d90 67800000 e31e06fc e31c07fc 6ff09ffd  g...........o...
 0da0 634cd600 e3c4c6fe 63681701 e3e0e8fe  cL......ch......
 0db0 13050000 67800000 e31205fc 13051000  ....g...........
 0dc0 67800000 130101fd 23229102 93547501  g.......#"...Tu.
 0dd0 23248102 232a5101 13149500 23261102  #$..#*Q.....#&..
 0de0 23202103 232e3101 232c4101 23286101  # !.#.1.#,A.#(a.
 0df0 93f4f40f 13549400 935af501 638a0410  .....T...Z..c...
 0e00 9307f00f 6382f414 13143400 b7070004  ....c.....4.....
 0e10 3364f400 938414f8 93090000 130b0000  3d..............
 0e20 93d77501 139a9500 93f7f70f 135a9a00  ..u..........Z..
 0e30 13d9f501 63820710 1307f00f 6384e704  ....c.......c...
 0e40 131a3a00 938717f8 37070004 336aea00  ..:.....7...3j..
 0e50 b384f400 93050000 b3c62a01 9307f000  ..........*.....
 0e60 13870600 13861400 63ea370f b7170000  ........c.7.....
 0e70 93878764 93992900 b389f900 83a70900  ...d..).........
 0e80 67800700 9384f40f 63120a1c 93e92900  g.......c.....).
 0e90 93052000 6ff05ffc 13070900 13040a00  .. .o._.........
 0ea0 138b0500 93072000 6306fb18 93073000  ...... .c.....0.
 0eb0 6308fb04 93071000 93060700 6314fb12  c...........c...
 0ec0 13050000 13070000 13147501 3364e400  ..........u.3d..
 0ed0 1395f601 8320c102 3365a400 03248102  ..... ..3e...$..
 0ee0 83244102 03290102 8329c101 032a8101  .$A..)...)...*..
 0ef0 832a4101 032b0101 13010103 67800000  .*A..+......g...
 0f00 93060000 1305f00f 37074000 6ff0dffb  ........7.@.o...
 0f10 631c0416 93d77501 139a9500 93f7f70f  c.....u.........
 0f20 93094000 93040000 130b1000 135a9a00  ..@..........Z..
 0f30 13d9f501 e39207f0 63100a12 93e91900  ........c.......
 0f40 93051000 6ff05ff1 63180412 93098000  ....o._.c.......
 0f50 9304f00f 130b2000 6ff09fec b7080100  ...... .o.......
 0f60 1387f8ff 93550401 13580a01 3374e400  .....U...X..3t..
 0f70 337aea00 33058a02 338a4503 13570501  3z..3...3.E..W..
 0f80 33048802 b3074401 b307f700 b3850503  3.....D.........
 0f90 63f44701 b3851501 37080100 1308f8ff  c.G.....7.......
 0fa0 33f70701 13170701 33750501 3307a700  3.......3u..3...
 0fb0 13146700 93d70701 33348000 1357a701  ..g.....34...W..
 0fc0 b387b700 3367e400 93976700 33e4e700  ....3g....g.3...
 0fd0 13974700 63540714 93571400 13741400  ..G.cT...W...t..
 0fe0 33e48700 9307f607 6356f00c 13777400  3.......cV...wt.
 0ff0 630a0700 1377f400 93054000 6304b700  c....w....@.c...
 1000 13044400 13174400 635a0700 b70700f8  ..D...D.cZ......
 1010 9387f7ff 3374f400 93070608 1307e00f  ....3t..........
 1020 6348f70e 13146400 13579400 13f5f70f  cH....d..W......
 1030 6ff09fe9 93060700 1305f00f 13070000  o...............
 1040 6ff09fe8 13870a00 6ff0dfe5 93e93900  o.......o.....9.
 1050 93053000 6ff05fe0 13050a00 eff00f9a  ..0.o._.........
 1060 9307b5ff b384a440 331afa00 9384a4f8  .......@3.......
 1070 93050000 6ff05fde 9309c000 9304f00f  ....o._.........
 1080 130b3000 6ff0dfd9 13050400 2326b100  ..0.o.......#&..
 1090 eff0cf96 9307b5ff 9304a0f8 8325c100  .............%..
 10a0 3314f400 b384a440 93090000 130b0000  3......@........
 10b0 6ff01fd7 93051000 b385f540 638a0700  o..........@c...
 10c0 9307b001 13050000 13070000 e3ceb7de  ................
 10d0 9307e609 b317f400 b337f000 3354b400  .........7..3T..
 10e0 3364f400 93777400 638a0700 9377f400  3d...wt.c....w..
 10f0 13074000 6384e700 13044400 93175400  ..@.c.....D...T.
 1100 63d20702 13051000 13070000 6ff0dfdb  c...........o...
 1110 1305f00f 13070000 6ff01fdb 13860400  ........o.......
 1120 6ff05fec 13146400 13579400 13050000  o._...d..W......
 1130 6ff09fd9 b7068000 130101ff 13d67501  o.............u.
 1140 9386f6ff 93577501 33f7a600 93f7f70f  .....Wu.3.......
 1150 b3f6b600 9378f60f 23229100 23202101  .....x..#"..# !.
 1160 1355f501 23261100 23248100 1308f00f  .U..#&..#$......
 1170 13060700 13890700 93040500 13133700  ..............7.
 1180 93d5f501 139e3600 b38e1741 63800815  ......6....Ac...
 1190 93c51500 630cb514 635cd00f 639e0812  ....c...c\..c...
 11a0 63080e24 938efeff 3307c341 638a0e02  c..$....3..Ac...
 11b0 1307f00f 6382e710 9307b001 13071000  ....c...........
 11c0 63ced701 93070002 b387d741 b317fe00  c..........A....
 11d0 3357de01 b337f000 3367f700 3307e340  3W...7..3g..3..@
 11e0 93175700 63d00720 37040004 1304f4ff  ..W.c.. 7.......
 11f0 33748700 13050400 eff04f80 1305b5ff  3t........O.....
 1200 3317a400 63442527 33052541 13041500  3...cD%'3.%A....
 1210 93070002 b3878740 b317f700 b337f000  .......@.....7..
 1220 33578700 3367f700 13090000 93777700  3W..3g.......ww.
 1230 638a0700 9376f700 93074000 6384f600  c....v....@.c...
 1240 13074700 93175700 63d2071a 93071900  ..G...W.c.......
 1250 9306f00f 13f51400 638cd71a 13176700  ........c.....g.
 1260 13579700 93f7f70f 8320c100 03248100  .W....... ...$..
 1270 93977701 33e7e700 1315f501 83244100  ..w.3........$A.
 1280 03290100 3365a700 13010101 67800000  .)..3e......g...
 1290 63860e0c 3386f840 63940720 630e0326  c...3..@c.. c..&
 12a0 1306f6ff 6300062a 9307f00f 6392f820  ....c..*....c.. 
 12b0 93840500 13860600 630a0614 13050000  ........c.......
 12c0 9307f00f 37074000 6ff01ffa e3020eec  ....7.@.o.......
 12d0 6306b514 e35ed0fb 1307f00f e38ee7fc  c....^..........
 12e0 b7070004 336efe00 6ff01fed 6358d013  ....3n..o...cX..
 12f0 6380080a 1307f00f e380e7fc b7070004  c...............
 1300 336efe00 9307b001 13071000 63ced701  3n..........c...
 1310 93070002 b387d741 b317fe00 3357de01  .......A....3W..
 1320 b337f000 3367f700 33076700 93175700  .7..3g..3.g...W.
 1330 63da070a 13091900 9307f00f 630af90c  c...........c...
 1340 b706007e 93571700 9386f6ff 13771700  ...~.W.......w..
 1350 b3f7d700 33e7e700 6ff05fed 13881700  ....3...o._.....
 1360 1378e80f 631e0810 6390071c 6304031e  .x..c...c...c...
 1370 e30c0eee 3307c341 93165700 63da061e  ....3..A..W.c...
 1380 33076e40 13090000 93840500 6ff01fea  3.n@........o...
 1390 63000e06 938efeff 3307c301 e3880ef8  c.......3.......
 13a0 1307f00f e390e7f6 6ff01ff1 13891700  ........o.......
 13b0 9375e90f 63920514 63900718 6304031c  .u..c...c...c...
 13c0 e3040eea 3307c301 93175700 13090000  ....3.....W.....
 13d0 63da0700 b70700fc 9387f7ff 3377f700  c...........3w..
 13e0 13091000 93777700 e39607e4 13563700  .....ww......V7.
 13f0 9307f00f e302f9ec 13179600 13579700  .............W..
 1400 9377f90f 13f51400 6ff01fe6 13f51400  .w......o.......
 1410 9307f00f 13070000 6ff01fe5 e3880ef8  ........o.......
 1420 3387f840 6390070c 630e0312 1307f7ff  3..@c...c.......
 1430 630e0714 9307f00f e38ef8e6 9306b001  c...............
 1440 93071000 63cee600 93070002 b387e740  ....c..........@
 1450 b317f300 3357e300 b337f000 b367f700  ....3W...7...g..
 1460 3387c701 13890800 6ff05fec b70700fc  3.......o._.....
 1470 9387f7ff 3309a940 3377f700 6ff01fdb  ....3..@3w..o...
 1480 3304c341 93175400 63c20708 e31404d6  3..A..T.c.......
 1490 13050000 93070000 13070000 6ff0dfdc  ............o...
 14a0 9307f00f e386f8e0 b7070004 3363f300  ............3c..
 14b0 9307b001 13071000 63cec700 93070002  ........c.......
 14c0 b387c740 b317f300 3357c300 b337f000  ...@....3W...7..
 14d0 3367f700 3307ee40 13890800 93840500  3g..3..@........
 14e0 6ff01fd0 9307f00f e386f8dc b7070004  o...............
 14f0 3363f300 6ff09ff4 9307f00f e30af9f0  3c..o...........
 1500 3307c301 13571700 6ff0dfed 33046e40  3....W..o...3.n@
 1510 93840500 6ff01fce 13860600 13890800  ....o...........
 1520 93840500 6ff0dfec 631a0300 e3080ed8  ....o...c.......
 1530 93840500 6ff01fd8 e30e03d6 e30e0ed6  ....o...........
 1540 6ff0dfd7 33076e40 13890800 93840500  o...3.n@........
 1550 6ff01fc9 63020e02 13850500 13870600  o...c...........
 1560 6ff09fd0 13860600 13890800 6ff05fe8  o...........o._.
 1570 13090000 e31807e6 13050000 13070000  ................
 1580 6ff09fce 13870600 6ff01fce 3307c301  o.......o...3...
 1590 13890800 6ff09fd9 7310457c 7390557c  ....o...s.E|s.U|
 15a0 73d0707c 67800000 7310157c 67800000  s.p|g...s..|g...
 15b0 7310257c 67800000 732530fc 67800000  s.%|g...s%0.g...
 15c0 732520fc 67800000 5c090000 c0070000  s% .g...\.......
 15d0 80080000 4c070000 80080000 74070000  ....L.......t...
 15e0 80080000 4c070000 c0070000 c0070000  ....L...........
 15f0 74070000 4c070000 58070000 58070000  t...L...X...X...
 1600 58070000 74070000 c0070000 c0070000  X...t...........
 1610 80080000 f0080000 80080000 74070000  ............t...
 1620 80080000 f0080000 c0070000 c0070000  ................
 1630 74070000 f0080000 58070000 58070000  t.......X...X...
 1640 58070000 74070000 5c0f0000 9c0e0000  X...t...\.......
 1650 9c0e0000 980e0000 a40e0000 a40e0000  ................
 1660 000f0000 980e0000 a40e0000 000f0000  ................
 1670 a40e0000 980e0000 44100000 44100000  ........D...D...
 1680 44100000 000f0000 48656c6c 6f2c2077  D.......Hello, w
 1690 6f726c64 21000000                    orld!...        
Contents of section .riscv.attributes:
 0000 41240000 00726973 63760001 1a000000  A$...riscv......
 0010 04100572 76333269 3270305f 6d327030  ...rv32i2p0_m2p0
 0020 0008010a 0b                          .....           
Contents of section .comment:
 0000 4743433a 20286732 65653565 34333030  GCC: (g2ee5e4300
 0010 31382920 31322e32 2e300047 43433a20  18) 12.2.0.GCC: 
 0020 28292039 2e332e30 00                 () 9.3.0.       

Disassembly of section .text:

00000000 <_start>:
       0:	40020137          	lui	sp,0x40020
       4:	00010113          	mv	sp,sp
       8:	000202b7          	lui	t0,0x20
       c:	00028293          	mv	t0,t0
      10:	405102b3          	sub	t0,sp,t0
      14:	00500233          	add	tp,zero,t0
      18:	ffc10113          	addi	sp,sp,-4 # 4001fffc <_stack_end+0xfffc>
      1c:	00000737          	lui	a4,0x0
      20:	008000ef          	jal	ra,28 <main>
      24:	00100073          	ebreak

00000028 <main>:
      28:	000017b7          	lui	a5,0x1
      2c:	68878793          	addi	a5,a5,1672 # 1688 <get_switches+0xc8>
      30:	0007a603          	lw	a2,0(a5)
      34:	0047a683          	lw	a3,4(a5)
      38:	0087a703          	lw	a4,8(a5)
      3c:	00c7d783          	lhu	a5,12(a5)
      40:	fe010113          	addi	sp,sp,-32
      44:	00912a23          	sw	s1,20(sp)
      48:	00812c23          	sw	s0,24(sp)
      4c:	01212823          	sw	s2,16(sp)
      50:	00112e23          	sw	ra,28(sp)
      54:	00c12023          	sw	a2,0(sp)
      58:	00d12223          	sw	a3,4(sp)
      5c:	00e12423          	sw	a4,8(sp)
      60:	00f11623          	sh	a5,12(sp)
      64:	1b800493          	li	s1,440
      68:	00100413          	li	s0,1
      6c:	02000913          	li	s2,32
      70:	00040513          	mv	a0,s0
      74:	00010693          	mv	a3,sp
      78:	00140413          	addi	s0,s0,1
      7c:	00100613          	li	a2,1
      80:	00048593          	mv	a1,s1
      84:	0a4000ef          	jal	ra,128 <spawn_thread>
      88:	ff2414e3          	bne	s0,s2,70 <main+0x48>
      8c:	00010513          	mv	a0,sp
      90:	128000ef          	jal	ra,1b8 <do_work>
      94:	0000006f          	j	94 <main+0x6c>

00000098 <_thread_start>:
      98:	dc102773          	csrr	a4,0xdc1
      9c:	000206b7          	lui	a3,0x20
      a0:	00068693          	mv	a3,a3
      a4:	00170793          	addi	a5,a4,1 # 1 <_start+0x1>
      a8:	02d787b3          	mul	a5,a5,a3
      ac:	40000637          	lui	a2,0x40000
      b0:	00060613          	mv	a2,a2
      b4:	00c787b3          	add	a5,a5,a2
      b8:	00f00133          	add	sp,zero,a5
      bc:	40d787b3          	sub	a5,a5,a3
      c0:	00f00233          	add	tp,zero,a5
      c4:	ffc10113          	addi	sp,sp,-4
      c8:	400007b7          	lui	a5,0x40000
      cc:	00271713          	slli	a4,a4,0x2
      d0:	00078793          	mv	a5,a5
      d4:	00e787b3          	add	a5,a5,a4
      d8:	0007a703          	lw	a4,0(a5) # 40000000 <_ram_start>
      dc:	00070513          	mv	a0,a4
      e0:	0807a783          	lw	a5,128(a5)
      e4:	00078067          	jr	a5
      e8:	00008067          	ret

000000ec <thread_print_char>:
      ec:	bc151073          	csrw	0xbc1,a0
      f0:	00008067          	ret

000000f4 <thread_print>:
      f4:	00054783          	lbu	a5,0(a0)
      f8:	00078a63          	beqz	a5,10c <thread_print+0x18>
      fc:	bc179073          	csrw	0xbc1,a5
     100:	00154783          	lbu	a5,1(a0)
     104:	00150513          	addi	a0,a0,1
     108:	fe079ae3          	bnez	a5,fc <thread_print+0x8>
     10c:	00008067          	ret

00000110 <get_current_thread_id>:
     110:	dc102573          	csrr	a0,0xdc1
     114:	00008067          	ret

00000118 <update_table>:
     118:	9c051073          	csrw	0x9c0,a0
     11c:	9c159073          	csrw	0x9c1,a1
     120:	9c261073          	csrw	0x9c2,a2
     124:	00008067          	ret

00000128 <spawn_thread>:
     128:	bc0027f3          	csrr	a5,0xbc0
     12c:	fe078ee3          	beqz	a5,128 <spawn_thread>
     130:	400007b7          	lui	a5,0x40000
     134:	00251713          	slli	a4,a0,0x2
     138:	00078793          	mv	a5,a5
     13c:	00e787b3          	add	a5,a5,a4
     140:	08b7a023          	sw	a1,128(a5) # 40000080 <initial_pc>
     144:	00d7a023          	sw	a3,0(a5)
     148:	9c051073          	csrw	0x9c0,a0
     14c:	09800793          	li	a5,152
     150:	9c179073          	csrw	0x9c1,a5
     154:	9c215073          	csrwi	0x9c2,2
     158:	9c051073          	csrw	0x9c0,a0
     15c:	9c161073          	csrw	0x9c1,a2
     160:	9c235073          	csrwi	0x9c2,6
     164:	9c051073          	csrw	0x9c0,a0
     168:	9c10d073          	csrwi	0x9c1,1
     16c:	9c225073          	csrwi	0x9c2,4
     170:	bc0027f3          	csrr	a5,0xbc0
     174:	00008067          	ret

00000178 <yield>:
     178:	bc0027f3          	csrr	a5,0xbc0
     17c:	fe078ee3          	beqz	a5,178 <yield>
     180:	dc102573          	csrr	a0,0xdc1
     184:	9c051073          	csrw	0x9c0,a0
     188:	9c10d073          	csrwi	0x9c1,1
     18c:	9c225073          	csrwi	0x9c2,4
     190:	bc0027f3          	csrr	a5,0xbc0
     194:	00008067          	ret

00000198 <exit_thread>:
     198:	bc0027f3          	csrr	a5,0xbc0
     19c:	fe078ee3          	beqz	a5,198 <exit_thread>
     1a0:	dc1027f3          	csrr	a5,0xdc1
     1a4:	9c079073          	csrw	0x9c0,a5
     1a8:	9c105073          	csrwi	0x9c1,0
     1ac:	9c225073          	csrwi	0x9c2,4
     1b0:	bc0027f3          	csrr	a5,0xbc0
     1b4:	00008067          	ret

000001b8 <do_work>:
     1b8:	ff010113          	addi	sp,sp,-16
     1bc:	00112623          	sw	ra,12(sp)
     1c0:	f35ff0ef          	jal	ra,f4 <thread_print>
     1c4:	00c12083          	lw	ra,12(sp)
     1c8:	01010113          	addi	sp,sp,16
     1cc:	fcdff06f          	j	198 <exit_thread>

000001d0 <join_thread>:
     1d0:	9c30d073          	csrwi	0x9c3,1
     1d4:	bc0027f3          	csrr	a5,0xbc0
     1d8:	fe078ee3          	beqz	a5,1d4 <join_thread+0x4>
     1dc:	9c051073          	csrw	0x9c0,a0
     1e0:	9c105073          	csrwi	0x9c1,0
     1e4:	9c21d073          	csrwi	0x9c2,3
     1e8:	dc0027f3          	csrr	a5,0xdc0
     1ec:	bc002773          	csrr	a4,0xbc0
     1f0:	fe0790e3          	bnez	a5,1d0 <join_thread>
     1f4:	00000513          	li	a0,0
     1f8:	00008067          	ret

000001fc <__clzsi2>:
     1fc:	00500713          	li	a4,5
     200:	01000793          	li	a5,16
     204:	02000613          	li	a2,32
     208:	00100593          	li	a1,1
     20c:	40f556b3          	sra	a3,a0,a5
     210:	fff70713          	addi	a4,a4,-1
     214:	00068863          	beqz	a3,224 <__clzsi2+0x28>
     218:	00b78e63          	beq	a5,a1,234 <__clzsi2+0x38>
     21c:	40f60633          	sub	a2,a2,a5
     220:	00068513          	mv	a0,a3
     224:	4017d793          	srai	a5,a5,0x1
     228:	fe0712e3          	bnez	a4,20c <__clzsi2+0x10>
     22c:	40a60533          	sub	a0,a2,a0
     230:	00008067          	ret
     234:	ffe60513          	addi	a0,a2,-2 # 3ffffffe <_thread_mem_size+0x3ffdfffe>
     238:	00008067          	ret

0000023c <__addsf3>:
     23c:	008006b7          	lui	a3,0x800
     240:	ff010113          	addi	sp,sp,-16
     244:	01755713          	srli	a4,a0,0x17
     248:	fff68693          	addi	a3,a3,-1 # 7fffff <_thread_mem_size+0x7dffff>
     24c:	0175d613          	srli	a2,a1,0x17
     250:	00a6f833          	and	a6,a3,a0
     254:	00912223          	sw	s1,4(sp)
     258:	00b6f6b3          	and	a3,a3,a1
     25c:	0ff77493          	zext.b	s1,a4
     260:	01212023          	sw	s2,0(sp)
     264:	0ff67613          	zext.b	a2,a2
     268:	01f55913          	srli	s2,a0,0x1f
     26c:	00112623          	sw	ra,12(sp)
     270:	00812423          	sw	s0,8(sp)
     274:	01f5d593          	srli	a1,a1,0x1f
     278:	00080793          	mv	a5,a6
     27c:	00048713          	mv	a4,s1
     280:	00090313          	mv	t1,s2
     284:	00381e13          	slli	t3,a6,0x3
     288:	00369513          	slli	a0,a3,0x3
     28c:	40c488b3          	sub	a7,s1,a2
     290:	12b90863          	beq	s2,a1,3c0 <__addsf3+0x184>
     294:	0f105863          	blez	a7,384 <__addsf3+0x148>
     298:	18060c63          	beqz	a2,430 <__addsf3+0x1f4>
     29c:	0ff00793          	li	a5,255
     2a0:	10f48663          	beq	s1,a5,3ac <__addsf3+0x170>
     2a4:	040007b7          	lui	a5,0x4000
     2a8:	00f56533          	or	a0,a0,a5
     2ac:	01b00713          	li	a4,27
     2b0:	00100793          	li	a5,1
     2b4:	01174e63          	blt	a4,a7,2d0 <__addsf3+0x94>
     2b8:	02000713          	li	a4,32
     2bc:	41170733          	sub	a4,a4,a7
     2c0:	00e51733          	sll	a4,a0,a4
     2c4:	011557b3          	srl	a5,a0,a7
     2c8:	00e03733          	snez	a4,a4
     2cc:	00e7e7b3          	or	a5,a5,a4
     2d0:	40fe07b3          	sub	a5,t3,a5
     2d4:	00579713          	slli	a4,a5,0x5
     2d8:	1e075c63          	bgez	a4,4d0 <__addsf3+0x294>
     2dc:	04000437          	lui	s0,0x4000
     2e0:	fff40413          	addi	s0,s0,-1 # 3ffffff <_thread_mem_size+0x3fdffff>
     2e4:	0087f433          	and	s0,a5,s0
     2e8:	00040513          	mv	a0,s0
     2ec:	f11ff0ef          	jal	ra,1fc <__clzsi2>
     2f0:	ffb50513          	addi	a0,a0,-5
     2f4:	00a417b3          	sll	a5,s0,a0
     2f8:	26954063          	blt	a0,s1,558 <__addsf3+0x31c>
     2fc:	40950733          	sub	a4,a0,s1
     300:	00170413          	addi	s0,a4,1
     304:	02000713          	li	a4,32
     308:	40870733          	sub	a4,a4,s0
     30c:	00e79733          	sll	a4,a5,a4
     310:	00e03733          	snez	a4,a4
     314:	0087d7b3          	srl	a5,a5,s0
     318:	00e7e7b3          	or	a5,a5,a4
     31c:	00000493          	li	s1,0
     320:	0077f713          	andi	a4,a5,7
     324:	00070a63          	beqz	a4,338 <__addsf3+0xfc>
     328:	00f7f713          	andi	a4,a5,15
     32c:	00400693          	li	a3,4
     330:	00d70463          	beq	a4,a3,338 <__addsf3+0xfc>
     334:	00478793          	addi	a5,a5,4 # 4000004 <_thread_mem_size+0x3fe0004>
     338:	00579713          	slli	a4,a5,0x5
     33c:	18075e63          	bgez	a4,4d8 <__addsf3+0x29c>
     340:	00148713          	addi	a4,s1,1
     344:	0ff00693          	li	a3,255
     348:	00090313          	mv	t1,s2
     34c:	1ad70863          	beq	a4,a3,4fc <__addsf3+0x2c0>
     350:	00679793          	slli	a5,a5,0x6
     354:	0097d793          	srli	a5,a5,0x9
     358:	0ff77713          	zext.b	a4,a4
     35c:	00c12083          	lw	ra,12(sp)
     360:	00812403          	lw	s0,8(sp)
     364:	01771513          	slli	a0,a4,0x17
     368:	00f567b3          	or	a5,a0,a5
     36c:	01f31513          	slli	a0,t1,0x1f
     370:	00412483          	lw	s1,4(sp)
     374:	00012903          	lw	s2,0(sp)
     378:	00a7e533          	or	a0,a5,a0
     37c:	01010113          	addi	sp,sp,16
     380:	00008067          	ret
     384:	0c088463          	beqz	a7,44c <__addsf3+0x210>
     388:	40960833          	sub	a6,a2,s1
     38c:	20049063          	bnez	s1,58c <__addsf3+0x350>
     390:	260e0a63          	beqz	t3,604 <__addsf3+0x3c8>
     394:	fff80813          	addi	a6,a6,-1
     398:	28080c63          	beqz	a6,630 <__addsf3+0x3f4>
     39c:	0ff00793          	li	a5,255
     3a0:	1ef61e63          	bne	a2,a5,59c <__addsf3+0x360>
     3a4:	00058913          	mv	s2,a1
     3a8:	00068813          	mv	a6,a3
     3ac:	14080663          	beqz	a6,4f8 <__addsf3+0x2bc>
     3b0:	00000313          	li	t1,0
     3b4:	0ff00713          	li	a4,255
     3b8:	004007b7          	lui	a5,0x400
     3bc:	fa1ff06f          	j	35c <__addsf3+0x120>
     3c0:	15105463          	blez	a7,508 <__addsf3+0x2cc>
     3c4:	0a060c63          	beqz	a2,47c <__addsf3+0x240>
     3c8:	0ff00793          	li	a5,255
     3cc:	fef480e3          	beq	s1,a5,3ac <__addsf3+0x170>
     3d0:	040007b7          	lui	a5,0x4000
     3d4:	00f56533          	or	a0,a0,a5
     3d8:	01b00713          	li	a4,27
     3dc:	00100793          	li	a5,1
     3e0:	01174e63          	blt	a4,a7,3fc <__addsf3+0x1c0>
     3e4:	02000713          	li	a4,32
     3e8:	41170733          	sub	a4,a4,a7
     3ec:	00e51733          	sll	a4,a0,a4
     3f0:	011557b3          	srl	a5,a0,a7
     3f4:	00e03733          	snez	a4,a4
     3f8:	00e7e7b3          	or	a5,a5,a4
     3fc:	01c787b3          	add	a5,a5,t3
     400:	00579713          	slli	a4,a5,0x5
     404:	0c075663          	bgez	a4,4d0 <__addsf3+0x294>
     408:	00148493          	addi	s1,s1,1
     40c:	0ff00713          	li	a4,255
     410:	0ee48663          	beq	s1,a4,4fc <__addsf3+0x2c0>
     414:	7e0006b7          	lui	a3,0x7e000
     418:	0017d713          	srli	a4,a5,0x1
     41c:	fff68693          	addi	a3,a3,-1 # 7dffffff <_stack_start+0x3dfdffff>
     420:	0017f793          	andi	a5,a5,1
     424:	00d77733          	and	a4,a4,a3
     428:	00f767b3          	or	a5,a4,a5
     42c:	ef5ff06f          	j	320 <__addsf3+0xe4>
     430:	0a050663          	beqz	a0,4dc <__addsf3+0x2a0>
     434:	fff88893          	addi	a7,a7,-1
     438:	40ae07b3          	sub	a5,t3,a0
     43c:	e8088ce3          	beqz	a7,2d4 <__addsf3+0x98>
     440:	0ff00793          	li	a5,255
     444:	e6f494e3          	bne	s1,a5,2ac <__addsf3+0x70>
     448:	f65ff06f          	j	3ac <__addsf3+0x170>
     44c:	00148613          	addi	a2,s1,1
     450:	0fe67613          	andi	a2,a2,254
     454:	10061c63          	bnez	a2,56c <__addsf3+0x330>
     458:	1a049e63          	bnez	s1,614 <__addsf3+0x3d8>
     45c:	1e0e0263          	beqz	t3,640 <__addsf3+0x404>
     460:	ee050ee3          	beqz	a0,35c <__addsf3+0x120>
     464:	40ae07b3          	sub	a5,t3,a0
     468:	00579693          	slli	a3,a5,0x5
     46c:	1e06d863          	bgez	a3,65c <__addsf3+0x420>
     470:	41c507b3          	sub	a5,a0,t3
     474:	00058913          	mv	s2,a1
     478:	ea9ff06f          	j	320 <__addsf3+0xe4>
     47c:	06050063          	beqz	a0,4dc <__addsf3+0x2a0>
     480:	fff88893          	addi	a7,a7,-1
     484:	00ae07b3          	add	a5,t3,a0
     488:	f6088ce3          	beqz	a7,400 <__addsf3+0x1c4>
     48c:	0ff00793          	li	a5,255
     490:	f4f494e3          	bne	s1,a5,3d8 <__addsf3+0x19c>
     494:	f19ff06f          	j	3ac <__addsf3+0x170>
     498:	00148493          	addi	s1,s1,1
     49c:	0fe4f613          	andi	a2,s1,254
     4a0:	14061263          	bnez	a2,5e4 <__addsf3+0x3a8>
     4a4:	18071063          	bnez	a4,624 <__addsf3+0x3e8>
     4a8:	1c0e0263          	beqz	t3,66c <__addsf3+0x430>
     4ac:	ea0508e3          	beqz	a0,35c <__addsf3+0x120>
     4b0:	00ae07b3          	add	a5,t3,a0
     4b4:	00579713          	slli	a4,a5,0x5
     4b8:	00000493          	li	s1,0
     4bc:	00075a63          	bgez	a4,4d0 <__addsf3+0x294>
     4c0:	fc000737          	lui	a4,0xfc000
     4c4:	fff70713          	addi	a4,a4,-1 # fbffffff <_stack_start+0xbbfdffff>
     4c8:	00e7f7b3          	and	a5,a5,a4
     4cc:	00100493          	li	s1,1
     4d0:	0077f713          	andi	a4,a5,7
     4d4:	e4071ae3          	bnez	a4,328 <__addsf3+0xec>
     4d8:	0037d813          	srli	a6,a5,0x3
     4dc:	0ff00793          	li	a5,255
     4e0:	ecf486e3          	beq	s1,a5,3ac <__addsf3+0x170>
     4e4:	00981793          	slli	a5,a6,0x9
     4e8:	0097d793          	srli	a5,a5,0x9
     4ec:	0ff4f713          	zext.b	a4,s1
     4f0:	00090313          	mv	t1,s2
     4f4:	e69ff06f          	j	35c <__addsf3+0x120>
     4f8:	00090313          	mv	t1,s2
     4fc:	0ff00713          	li	a4,255
     500:	00000793          	li	a5,0
     504:	e59ff06f          	j	35c <__addsf3+0x120>
     508:	f80888e3          	beqz	a7,498 <__addsf3+0x25c>
     50c:	409607b3          	sub	a5,a2,s1
     510:	0c049063          	bnez	s1,5d0 <__addsf3+0x394>
     514:	120e0e63          	beqz	t3,650 <__addsf3+0x414>
     518:	fff78793          	addi	a5,a5,-1 # 3ffffff <_thread_mem_size+0x3fdffff>
     51c:	14078c63          	beqz	a5,674 <__addsf3+0x438>
     520:	0ff00713          	li	a4,255
     524:	e8e602e3          	beq	a2,a4,3a8 <__addsf3+0x16c>
     528:	01b00693          	li	a3,27
     52c:	00100713          	li	a4,1
     530:	00f6ce63          	blt	a3,a5,54c <__addsf3+0x310>
     534:	02000713          	li	a4,32
     538:	40f70733          	sub	a4,a4,a5
     53c:	00ee1733          	sll	a4,t3,a4
     540:	00fe57b3          	srl	a5,t3,a5
     544:	00e03733          	snez	a4,a4
     548:	00e7e733          	or	a4,a5,a4
     54c:	00a707b3          	add	a5,a4,a0
     550:	00060493          	mv	s1,a2
     554:	eadff06f          	j	400 <__addsf3+0x1c4>
     558:	fc000737          	lui	a4,0xfc000
     55c:	fff70713          	addi	a4,a4,-1 # fbffffff <_stack_start+0xbbfdffff>
     560:	40a484b3          	sub	s1,s1,a0
     564:	00e7f7b3          	and	a5,a5,a4
     568:	db9ff06f          	j	320 <__addsf3+0xe4>
     56c:	40ae0433          	sub	s0,t3,a0
     570:	00541793          	slli	a5,s0,0x5
     574:	0807c263          	bltz	a5,5f8 <__addsf3+0x3bc>
     578:	d60418e3          	bnez	s0,2e8 <__addsf3+0xac>
     57c:	00000313          	li	t1,0
     580:	00000713          	li	a4,0
     584:	00000793          	li	a5,0
     588:	dd5ff06f          	j	35c <__addsf3+0x120>
     58c:	0ff00793          	li	a5,255
     590:	e0f60ae3          	beq	a2,a5,3a4 <__addsf3+0x168>
     594:	040007b7          	lui	a5,0x4000
     598:	00fe6e33          	or	t3,t3,a5
     59c:	01b00713          	li	a4,27
     5a0:	00100793          	li	a5,1
     5a4:	01074e63          	blt	a4,a6,5c0 <__addsf3+0x384>
     5a8:	02000713          	li	a4,32
     5ac:	41070733          	sub	a4,a4,a6
     5b0:	00ee1733          	sll	a4,t3,a4
     5b4:	010e57b3          	srl	a5,t3,a6
     5b8:	00e03733          	snez	a4,a4
     5bc:	00e7e7b3          	or	a5,a5,a4
     5c0:	40f507b3          	sub	a5,a0,a5
     5c4:	00060493          	mv	s1,a2
     5c8:	00058913          	mv	s2,a1
     5cc:	d09ff06f          	j	2d4 <__addsf3+0x98>
     5d0:	0ff00713          	li	a4,255
     5d4:	dce60ae3          	beq	a2,a4,3a8 <__addsf3+0x16c>
     5d8:	04000737          	lui	a4,0x4000
     5dc:	00ee6e33          	or	t3,t3,a4
     5e0:	f49ff06f          	j	528 <__addsf3+0x2ec>
     5e4:	0ff00793          	li	a5,255
     5e8:	f0f48ae3          	beq	s1,a5,4fc <__addsf3+0x2c0>
     5ec:	00ae07b3          	add	a5,t3,a0
     5f0:	0017d793          	srli	a5,a5,0x1
     5f4:	eddff06f          	j	4d0 <__addsf3+0x294>
     5f8:	41c50433          	sub	s0,a0,t3
     5fc:	00058913          	mv	s2,a1
     600:	ce9ff06f          	j	2e8 <__addsf3+0xac>
     604:	00068813          	mv	a6,a3
     608:	00060493          	mv	s1,a2
     60c:	00058913          	mv	s2,a1
     610:	ecdff06f          	j	4dc <__addsf3+0x2a0>
     614:	000e1a63          	bnez	t3,628 <__addsf3+0x3ec>
     618:	d8050ce3          	beqz	a0,3b0 <__addsf3+0x174>
     61c:	00058913          	mv	s2,a1
     620:	d89ff06f          	j	3a8 <__addsf3+0x16c>
     624:	d80e02e3          	beqz	t3,3a8 <__addsf3+0x16c>
     628:	d80502e3          	beqz	a0,3ac <__addsf3+0x170>
     62c:	d85ff06f          	j	3b0 <__addsf3+0x174>
     630:	41c507b3          	sub	a5,a0,t3
     634:	00060493          	mv	s1,a2
     638:	00058913          	mv	s2,a1
     63c:	c99ff06f          	j	2d4 <__addsf3+0x98>
     640:	02050063          	beqz	a0,660 <__addsf3+0x424>
     644:	00058313          	mv	t1,a1
     648:	00068793          	mv	a5,a3
     64c:	d11ff06f          	j	35c <__addsf3+0x120>
     650:	00068813          	mv	a6,a3
     654:	00060493          	mv	s1,a2
     658:	e85ff06f          	j	4dc <__addsf3+0x2a0>
     65c:	e6079ae3          	bnez	a5,4d0 <__addsf3+0x294>
     660:	00000313          	li	t1,0
     664:	00000793          	li	a5,0
     668:	cf5ff06f          	j	35c <__addsf3+0x120>
     66c:	00068793          	mv	a5,a3
     670:	cedff06f          	j	35c <__addsf3+0x120>
     674:	00ae07b3          	add	a5,t3,a0
     678:	00060493          	mv	s1,a2
     67c:	d85ff06f          	j	400 <__addsf3+0x1c4>

00000680 <__divsf3>:
     680:	fc010113          	addi	sp,sp,-64
     684:	01755793          	srli	a5,a0,0x17
     688:	02912a23          	sw	s1,52(sp)
     68c:	03512223          	sw	s5,36(sp)
     690:	01712e23          	sw	s7,28(sp)
     694:	00951693          	slli	a3,a0,0x9
     698:	01f55493          	srli	s1,a0,0x1f
     69c:	02112e23          	sw	ra,60(sp)
     6a0:	02812c23          	sw	s0,56(sp)
     6a4:	03212823          	sw	s2,48(sp)
     6a8:	03312623          	sw	s3,44(sp)
     6ac:	03412423          	sw	s4,40(sp)
     6b0:	03612023          	sw	s6,32(sp)
     6b4:	0ff7f793          	zext.b	a5,a5
     6b8:	0096da93          	srli	s5,a3,0x9
     6bc:	00048b93          	mv	s7,s1
     6c0:	12078a63          	beqz	a5,7f4 <__divsf3+0x174>
     6c4:	0ff00613          	li	a2,255
     6c8:	14c78063          	beq	a5,a2,808 <__divsf3+0x188>
     6cc:	003a9693          	slli	a3,s5,0x3
     6d0:	04000637          	lui	a2,0x4000
     6d4:	00c6eab3          	or	s5,a3,a2
     6d8:	f8178a13          	addi	s4,a5,-127 # 3ffff81 <_thread_mem_size+0x3fdff81>
     6dc:	00000413          	li	s0,0
     6e0:	00000b13          	li	s6,0
     6e4:	0175d793          	srli	a5,a1,0x17
     6e8:	00959993          	slli	s3,a1,0x9
     6ec:	0ff7f793          	zext.b	a5,a5
     6f0:	0099d993          	srli	s3,s3,0x9
     6f4:	01f5d913          	srli	s2,a1,0x1f
     6f8:	0c078a63          	beqz	a5,7cc <__divsf3+0x14c>
     6fc:	0ff00713          	li	a4,255
     700:	02e78e63          	beq	a5,a4,73c <__divsf3+0xbc>
     704:	04000737          	lui	a4,0x4000
     708:	00399993          	slli	s3,s3,0x3
     70c:	f8178793          	addi	a5,a5,-127
     710:	00e9e9b3          	or	s3,s3,a4
     714:	40fa0a33          	sub	s4,s4,a5
     718:	00000713          	li	a4,0
     71c:	00e46433          	or	s0,s0,a4
     720:	000017b7          	lui	a5,0x1
     724:	5c878793          	addi	a5,a5,1480 # 15c8 <get_switches+0x8>
     728:	00241413          	slli	s0,s0,0x2
     72c:	00f40433          	add	s0,s0,a5
     730:	00042783          	lw	a5,0(s0)
     734:	0124c4b3          	xor	s1,s1,s2
     738:	00078067          	jr	a5
     73c:	f01a0a13          	addi	s4,s4,-255
     740:	12099c63          	bnez	s3,878 <__divsf3+0x1f8>
     744:	00200713          	li	a4,2
     748:	08c0006f          	j	7d4 <__divsf3+0x154>
     74c:	00098a93          	mv	s5,s3
     750:	00090b93          	mv	s7,s2
     754:	00070b13          	mv	s6,a4
     758:	00100793          	li	a5,1
     75c:	18fb0263          	beq	s6,a5,8e0 <__divsf3+0x260>
     760:	120b0663          	beqz	s6,88c <__divsf3+0x20c>
     764:	00200793          	li	a5,2
     768:	04fb0a63          	beq	s6,a5,7bc <__divsf3+0x13c>
     76c:	00300793          	li	a5,3
     770:	10fb1e63          	bne	s6,a5,88c <__divsf3+0x20c>
     774:	00000493          	li	s1,0
     778:	0ff00793          	li	a5,255
     77c:	004006b7          	lui	a3,0x400
     780:	03c12083          	lw	ra,60(sp)
     784:	03812403          	lw	s0,56(sp)
     788:	01779513          	slli	a0,a5,0x17
     78c:	01f49493          	slli	s1,s1,0x1f
     790:	00d56533          	or	a0,a0,a3
     794:	03012903          	lw	s2,48(sp)
     798:	02c12983          	lw	s3,44(sp)
     79c:	02812a03          	lw	s4,40(sp)
     7a0:	02412a83          	lw	s5,36(sp)
     7a4:	02012b03          	lw	s6,32(sp)
     7a8:	01c12b83          	lw	s7,28(sp)
     7ac:	00956533          	or	a0,a0,s1
     7b0:	03412483          	lw	s1,52(sp)
     7b4:	04010113          	addi	sp,sp,64
     7b8:	00008067          	ret
     7bc:	000b8493          	mv	s1,s7
     7c0:	0ff00793          	li	a5,255
     7c4:	00000693          	li	a3,0
     7c8:	fb9ff06f          	j	780 <__divsf3+0x100>
     7cc:	08099663          	bnez	s3,858 <__divsf3+0x1d8>
     7d0:	00100713          	li	a4,1
     7d4:	00e46433          	or	s0,s0,a4
     7d8:	000017b7          	lui	a5,0x1
     7dc:	60878793          	addi	a5,a5,1544 # 1608 <get_switches+0x48>
     7e0:	00241413          	slli	s0,s0,0x2
     7e4:	00f40433          	add	s0,s0,a5
     7e8:	00042783          	lw	a5,0(s0)
     7ec:	0124c4b3          	xor	s1,s1,s2
     7f0:	00078067          	jr	a5
     7f4:	020a9c63          	bnez	s5,82c <__divsf3+0x1ac>
     7f8:	00400413          	li	s0,4
     7fc:	00000a13          	li	s4,0
     800:	00100b13          	li	s6,1
     804:	ee1ff06f          	j	6e4 <__divsf3+0x64>
     808:	000a9a63          	bnez	s5,81c <__divsf3+0x19c>
     80c:	00800413          	li	s0,8
     810:	0ff00a13          	li	s4,255
     814:	00200b13          	li	s6,2
     818:	ecdff06f          	j	6e4 <__divsf3+0x64>
     81c:	00c00413          	li	s0,12
     820:	0ff00a13          	li	s4,255
     824:	00300b13          	li	s6,3
     828:	ebdff06f          	j	6e4 <__divsf3+0x64>
     82c:	000a8513          	mv	a0,s5
     830:	00b12623          	sw	a1,12(sp)
     834:	9c9ff0ef          	jal	ra,1fc <__clzsi2>
     838:	ffb50793          	addi	a5,a0,-5
     83c:	00fa9ab3          	sll	s5,s5,a5
     840:	f8a00793          	li	a5,-118
     844:	00c12583          	lw	a1,12(sp)
     848:	40a78a33          	sub	s4,a5,a0
     84c:	00000413          	li	s0,0
     850:	00000b13          	li	s6,0
     854:	e91ff06f          	j	6e4 <__divsf3+0x64>
     858:	00098513          	mv	a0,s3
     85c:	9a1ff0ef          	jal	ra,1fc <__clzsi2>
     860:	ffb50713          	addi	a4,a0,-5
     864:	00aa07b3          	add	a5,s4,a0
     868:	00e999b3          	sll	s3,s3,a4
     86c:	07678a13          	addi	s4,a5,118
     870:	00000713          	li	a4,0
     874:	ea9ff06f          	j	71c <__divsf3+0x9c>
     878:	00300713          	li	a4,3
     87c:	ea1ff06f          	j	71c <__divsf3+0x9c>
     880:	00000793          	li	a5,0
     884:	00000693          	li	a3,0
     888:	ef9ff06f          	j	780 <__divsf3+0x100>
     88c:	000b8493          	mv	s1,s7
     890:	07fa0713          	addi	a4,s4,127
     894:	06e05663          	blez	a4,900 <__divsf3+0x280>
     898:	007af793          	andi	a5,s5,7
     89c:	00078a63          	beqz	a5,8b0 <__divsf3+0x230>
     8a0:	00faf793          	andi	a5,s5,15
     8a4:	00400693          	li	a3,4
     8a8:	00d78463          	beq	a5,a3,8b0 <__divsf3+0x230>
     8ac:	004a8a93          	addi	s5,s5,4
     8b0:	004a9793          	slli	a5,s5,0x4
     8b4:	0007da63          	bgez	a5,8c8 <__divsf3+0x248>
     8b8:	f80007b7          	lui	a5,0xf8000
     8bc:	fff78793          	addi	a5,a5,-1 # f7ffffff <_stack_start+0xb7fdffff>
     8c0:	00fafab3          	and	s5,s5,a5
     8c4:	080a0713          	addi	a4,s4,128
     8c8:	0fe00793          	li	a5,254
     8cc:	eee7cae3          	blt	a5,a4,7c0 <__divsf3+0x140>
     8d0:	006a9693          	slli	a3,s5,0x6
     8d4:	0096d693          	srli	a3,a3,0x9
     8d8:	0ff77793          	zext.b	a5,a4
     8dc:	ea5ff06f          	j	780 <__divsf3+0x100>
     8e0:	000b8493          	mv	s1,s7
     8e4:	00000793          	li	a5,0
     8e8:	00000693          	li	a3,0
     8ec:	e95ff06f          	j	780 <__divsf3+0x100>
     8f0:	00090b93          	mv	s7,s2
     8f4:	00070b13          	mv	s6,a4
     8f8:	00000a93          	li	s5,0
     8fc:	e5dff06f          	j	758 <__divsf3+0xd8>
     900:	00100613          	li	a2,1
     904:	40e60633          	sub	a2,a2,a4
     908:	00070a63          	beqz	a4,91c <__divsf3+0x29c>
     90c:	01b00713          	li	a4,27
     910:	00000793          	li	a5,0
     914:	00000693          	li	a3,0
     918:	e6c744e3          	blt	a4,a2,780 <__divsf3+0x100>
     91c:	09ea0793          	addi	a5,s4,158
     920:	00fa97b3          	sll	a5,s5,a5
     924:	00cad6b3          	srl	a3,s5,a2
     928:	00f03ab3          	snez	s5,a5
     92c:	0156e6b3          	or	a3,a3,s5
     930:	0076f793          	andi	a5,a3,7
     934:	00078a63          	beqz	a5,948 <__divsf3+0x2c8>
     938:	00f6f793          	andi	a5,a3,15
     93c:	00400713          	li	a4,4
     940:	00e78463          	beq	a5,a4,948 <__divsf3+0x2c8>
     944:	00468693          	addi	a3,a3,4 # 400004 <_thread_mem_size+0x3e0004>
     948:	00569793          	slli	a5,a3,0x5
     94c:	0c07da63          	bgez	a5,a20 <__divsf3+0x3a0>
     950:	00100793          	li	a5,1
     954:	00000693          	li	a3,0
     958:	e29ff06f          	j	780 <__divsf3+0x100>
     95c:	00010737          	lui	a4,0x10
     960:	00599513          	slli	a0,s3,0x5
     964:	fff70713          	addi	a4,a4,-1 # ffff <_etext+0xe967>
     968:	01055793          	srli	a5,a0,0x10
     96c:	00e57733          	and	a4,a0,a4
     970:	093af463          	bgeu	s5,s3,9f8 <__divsf3+0x378>
     974:	02fad5b3          	divu	a1,s5,a5
     978:	fffa0a13          	addi	s4,s4,-1
     97c:	000a8613          	mv	a2,s5
     980:	00000693          	li	a3,0
     984:	02b70833          	mul	a6,a4,a1
     988:	02f67633          	remu	a2,a2,a5
     98c:	01061613          	slli	a2,a2,0x10
     990:	00d666b3          	or	a3,a2,a3
     994:	0106fe63          	bgeu	a3,a6,9b0 <__divsf3+0x330>
     998:	00a686b3          	add	a3,a3,a0
     99c:	fff58613          	addi	a2,a1,-1
     9a0:	06a6ec63          	bltu	a3,a0,a18 <__divsf3+0x398>
     9a4:	0706fa63          	bgeu	a3,a6,a18 <__divsf3+0x398>
     9a8:	ffe58593          	addi	a1,a1,-2
     9ac:	00a686b3          	add	a3,a3,a0
     9b0:	410686b3          	sub	a3,a3,a6
     9b4:	02f6dab3          	divu	s5,a3,a5
     9b8:	02f6f6b3          	remu	a3,a3,a5
     9bc:	02ea87b3          	mul	a5,s5,a4
     9c0:	01069713          	slli	a4,a3,0x10
     9c4:	00f77e63          	bgeu	a4,a5,9e0 <__divsf3+0x360>
     9c8:	00a70733          	add	a4,a4,a0
     9cc:	fffa8693          	addi	a3,s5,-1
     9d0:	04a76063          	bltu	a4,a0,a10 <__divsf3+0x390>
     9d4:	02f77e63          	bgeu	a4,a5,a10 <__divsf3+0x390>
     9d8:	ffea8a93          	addi	s5,s5,-2
     9dc:	00a70733          	add	a4,a4,a0
     9e0:	01059693          	slli	a3,a1,0x10
     9e4:	40f70733          	sub	a4,a4,a5
     9e8:	0156e6b3          	or	a3,a3,s5
     9ec:	00e03733          	snez	a4,a4
     9f0:	00e6eab3          	or	s5,a3,a4
     9f4:	e9dff06f          	j	890 <__divsf3+0x210>
     9f8:	001ad613          	srli	a2,s5,0x1
     9fc:	02f655b3          	divu	a1,a2,a5
     a00:	01fa9693          	slli	a3,s5,0x1f
     a04:	0106d693          	srli	a3,a3,0x10
     a08:	02b70833          	mul	a6,a4,a1
     a0c:	f7dff06f          	j	988 <__divsf3+0x308>
     a10:	00068a93          	mv	s5,a3
     a14:	fcdff06f          	j	9e0 <__divsf3+0x360>
     a18:	00060593          	mv	a1,a2
     a1c:	f95ff06f          	j	9b0 <__divsf3+0x330>
     a20:	00669693          	slli	a3,a3,0x6
     a24:	0096d693          	srli	a3,a3,0x9
     a28:	00000793          	li	a5,0
     a2c:	d55ff06f          	j	780 <__divsf3+0x100>

00000a30 <__floatsisf>:
     a30:	ff010113          	addi	sp,sp,-16
     a34:	00112623          	sw	ra,12(sp)
     a38:	00812423          	sw	s0,8(sp)
     a3c:	00912223          	sw	s1,4(sp)
     a40:	04050a63          	beqz	a0,a94 <__floatsisf+0x64>
     a44:	41f55713          	srai	a4,a0,0x1f
     a48:	00a744b3          	xor	s1,a4,a0
     a4c:	40e484b3          	sub	s1,s1,a4
     a50:	00050793          	mv	a5,a0
     a54:	00048513          	mv	a0,s1
     a58:	01f7d413          	srli	s0,a5,0x1f
     a5c:	fa0ff0ef          	jal	ra,1fc <__clzsi2>
     a60:	09e00793          	li	a5,158
     a64:	40a787b3          	sub	a5,a5,a0
     a68:	09600713          	li	a4,150
     a6c:	00050693          	mv	a3,a0
     a70:	04f74a63          	blt	a4,a5,ac4 <__floatsisf+0x94>
     a74:	00800713          	li	a4,8
     a78:	0ff7f513          	zext.b	a0,a5
     a7c:	00d75663          	bge	a4,a3,a88 <__floatsisf+0x58>
     a80:	ff868693          	addi	a3,a3,-8
     a84:	00d494b3          	sll	s1,s1,a3
     a88:	00949493          	slli	s1,s1,0x9
     a8c:	0094d493          	srli	s1,s1,0x9
     a90:	0100006f          	j	aa0 <__floatsisf+0x70>
     a94:	00000413          	li	s0,0
     a98:	00000513          	li	a0,0
     a9c:	00000493          	li	s1,0
     aa0:	00c12083          	lw	ra,12(sp)
     aa4:	01f41793          	slli	a5,s0,0x1f
     aa8:	00812403          	lw	s0,8(sp)
     aac:	01751513          	slli	a0,a0,0x17
     ab0:	00956533          	or	a0,a0,s1
     ab4:	00f56533          	or	a0,a0,a5
     ab8:	00412483          	lw	s1,4(sp)
     abc:	01010113          	addi	sp,sp,16
     ac0:	00008067          	ret
     ac4:	09900713          	li	a4,153
     ac8:	02f75063          	bge	a4,a5,ae8 <__floatsisf+0xb8>
     acc:	01b50513          	addi	a0,a0,27
     ad0:	00500713          	li	a4,5
     ad4:	00a49533          	sll	a0,s1,a0
     ad8:	40d70733          	sub	a4,a4,a3
     adc:	00e4d4b3          	srl	s1,s1,a4
     ae0:	00a03533          	snez	a0,a0
     ae4:	00a4e4b3          	or	s1,s1,a0
     ae8:	00500713          	li	a4,5
     aec:	00d75663          	bge	a4,a3,af8 <__floatsisf+0xc8>
     af0:	ffb68713          	addi	a4,a3,-5
     af4:	00e494b3          	sll	s1,s1,a4
     af8:	fc000637          	lui	a2,0xfc000
     afc:	fff60613          	addi	a2,a2,-1 # fbffffff <_stack_start+0xbbfdffff>
     b00:	0074f593          	andi	a1,s1,7
     b04:	00c4f733          	and	a4,s1,a2
     b08:	02058463          	beqz	a1,b30 <__floatsisf+0x100>
     b0c:	00f4f493          	andi	s1,s1,15
     b10:	00400593          	li	a1,4
     b14:	00b48e63          	beq	s1,a1,b30 <__floatsisf+0x100>
     b18:	00470713          	addi	a4,a4,4
     b1c:	00571593          	slli	a1,a4,0x5
     b20:	0005d863          	bgez	a1,b30 <__floatsisf+0x100>
     b24:	09f00793          	li	a5,159
     b28:	00c77733          	and	a4,a4,a2
     b2c:	40d787b3          	sub	a5,a5,a3
     b30:	00671493          	slli	s1,a4,0x6
     b34:	0094d493          	srli	s1,s1,0x9
     b38:	0ff7f513          	zext.b	a0,a5
     b3c:	f65ff06f          	j	aa0 <__floatsisf+0x70>

00000b40 <__floatunsisf>:
     b40:	ff010113          	addi	sp,sp,-16
     b44:	00112623          	sw	ra,12(sp)
     b48:	00812423          	sw	s0,8(sp)
     b4c:	04050863          	beqz	a0,b9c <__floatunsisf+0x5c>
     b50:	00050413          	mv	s0,a0
     b54:	ea8ff0ef          	jal	ra,1fc <__clzsi2>
     b58:	09e00793          	li	a5,158
     b5c:	40a787b3          	sub	a5,a5,a0
     b60:	09600713          	li	a4,150
     b64:	04f74c63          	blt	a4,a5,bbc <__floatunsisf+0x7c>
     b68:	00800713          	li	a4,8
     b6c:	0ff7f793          	zext.b	a5,a5
     b70:	00a75663          	bge	a4,a0,b7c <__floatunsisf+0x3c>
     b74:	ff850513          	addi	a0,a0,-8
     b78:	00a41433          	sll	s0,s0,a0
     b7c:	00941413          	slli	s0,s0,0x9
     b80:	00945413          	srli	s0,s0,0x9
     b84:	01779513          	slli	a0,a5,0x17
     b88:	00c12083          	lw	ra,12(sp)
     b8c:	00856533          	or	a0,a0,s0
     b90:	00812403          	lw	s0,8(sp)
     b94:	01010113          	addi	sp,sp,16
     b98:	00008067          	ret
     b9c:	00000793          	li	a5,0
     ba0:	00000413          	li	s0,0
     ba4:	01779513          	slli	a0,a5,0x17
     ba8:	00c12083          	lw	ra,12(sp)
     bac:	00856533          	or	a0,a0,s0
     bb0:	00812403          	lw	s0,8(sp)
     bb4:	01010113          	addi	sp,sp,16
     bb8:	00008067          	ret
     bbc:	09900713          	li	a4,153
     bc0:	02f75063          	bge	a4,a5,be0 <__floatunsisf+0xa0>
     bc4:	01b50713          	addi	a4,a0,27
     bc8:	00500693          	li	a3,5
     bcc:	00e41733          	sll	a4,s0,a4
     bd0:	40a686b3          	sub	a3,a3,a0
     bd4:	00e03733          	snez	a4,a4
     bd8:	00d45433          	srl	s0,s0,a3
     bdc:	00876433          	or	s0,a4,s0
     be0:	00500713          	li	a4,5
     be4:	00a75663          	bge	a4,a0,bf0 <__floatunsisf+0xb0>
     be8:	ffb50713          	addi	a4,a0,-5
     bec:	00e41433          	sll	s0,s0,a4
     bf0:	fc0006b7          	lui	a3,0xfc000
     bf4:	fff68693          	addi	a3,a3,-1 # fbffffff <_stack_start+0xbbfdffff>
     bf8:	00747613          	andi	a2,s0,7
     bfc:	00d47733          	and	a4,s0,a3
     c00:	02060463          	beqz	a2,c28 <__floatunsisf+0xe8>
     c04:	00f47413          	andi	s0,s0,15
     c08:	00400613          	li	a2,4
     c0c:	00c40e63          	beq	s0,a2,c28 <__floatunsisf+0xe8>
     c10:	00470713          	addi	a4,a4,4
     c14:	00571613          	slli	a2,a4,0x5
     c18:	00065863          	bgez	a2,c28 <__floatunsisf+0xe8>
     c1c:	09f00793          	li	a5,159
     c20:	00d77733          	and	a4,a4,a3
     c24:	40a787b3          	sub	a5,a5,a0
     c28:	00671413          	slli	s0,a4,0x6
     c2c:	0ff7f793          	zext.b	a5,a5
     c30:	00945413          	srli	s0,s0,0x9
     c34:	01779513          	slli	a0,a5,0x17
     c38:	00c12083          	lw	ra,12(sp)
     c3c:	00856533          	or	a0,a0,s0
     c40:	00812403          	lw	s0,8(sp)
     c44:	01010113          	addi	sp,sp,16
     c48:	00008067          	ret

00000c4c <__gesf2>:
     c4c:	01755693          	srli	a3,a0,0x17
     c50:	00800737          	lui	a4,0x800
     c54:	fff70713          	addi	a4,a4,-1 # 7fffff <_thread_mem_size+0x7dffff>
     c58:	0175d613          	srli	a2,a1,0x17
     c5c:	0ff6f693          	zext.b	a3,a3
     c60:	0ff00813          	li	a6,255
     c64:	00a778b3          	and	a7,a4,a0
     c68:	01f55793          	srli	a5,a0,0x1f
     c6c:	00b77733          	and	a4,a4,a1
     c70:	0ff67613          	zext.b	a2,a2
     c74:	01f5d513          	srli	a0,a1,0x1f
     c78:	03068263          	beq	a3,a6,c9c <__gesf2+0x50>
     c7c:	03060463          	beq	a2,a6,ca4 <__gesf2+0x58>
     c80:	04069863          	bnez	a3,cd0 <__gesf2+0x84>
     c84:	0018b593          	seqz	a1,a7
     c88:	02061e63          	bnez	a2,cc4 <__gesf2+0x78>
     c8c:	02071c63          	bnez	a4,cc4 <__gesf2+0x78>
     c90:	00000513          	li	a0,0
     c94:	00089e63          	bnez	a7,cb0 <__gesf2+0x64>
     c98:	00008067          	ret
     c9c:	06089263          	bnez	a7,d00 <__gesf2+0xb4>
     ca0:	02d61863          	bne	a2,a3,cd0 <__gesf2+0x84>
     ca4:	04071e63          	bnez	a4,d00 <__gesf2+0xb4>
     ca8:	00068c63          	beqz	a3,cc0 <__gesf2+0x74>
     cac:	02a78863          	beq	a5,a0,cdc <__gesf2+0x90>
     cb0:	00100513          	li	a0,1
     cb4:	fe0782e3          	beqz	a5,c98 <__gesf2+0x4c>
     cb8:	fff00513          	li	a0,-1
     cbc:	00008067          	ret
     cc0:	0018b593          	seqz	a1,a7
     cc4:	fe0584e3          	beqz	a1,cac <__gesf2+0x60>
     cc8:	fe0508e3          	beqz	a0,cb8 <__gesf2+0x6c>
     ccc:	00008067          	ret
     cd0:	fc061ee3          	bnez	a2,cac <__gesf2+0x60>
     cd4:	fc071ce3          	bnez	a4,cac <__gesf2+0x60>
     cd8:	fd9ff06f          	j	cb0 <__gesf2+0x64>
     cdc:	00d64c63          	blt	a2,a3,cf4 <__gesf2+0xa8>
     ce0:	fec6c4e3          	blt	a3,a2,cc8 <__gesf2+0x7c>
     ce4:	01176863          	bltu	a4,a7,cf4 <__gesf2+0xa8>
     ce8:	fee8e0e3          	bltu	a7,a4,cc8 <__gesf2+0x7c>
     cec:	00000513          	li	a0,0
     cf0:	00008067          	ret
     cf4:	fc0512e3          	bnez	a0,cb8 <__gesf2+0x6c>
     cf8:	00100513          	li	a0,1
     cfc:	00008067          	ret
     d00:	ffe00513          	li	a0,-2
     d04:	00008067          	ret

00000d08 <__lesf2>:
     d08:	01755693          	srli	a3,a0,0x17
     d0c:	00800737          	lui	a4,0x800
     d10:	fff70713          	addi	a4,a4,-1 # 7fffff <_thread_mem_size+0x7dffff>
     d14:	0175d613          	srli	a2,a1,0x17
     d18:	0ff6f693          	zext.b	a3,a3
     d1c:	0ff00813          	li	a6,255
     d20:	00a778b3          	and	a7,a4,a0
     d24:	01f55793          	srli	a5,a0,0x1f
     d28:	00b77733          	and	a4,a4,a1
     d2c:	0ff67613          	zext.b	a2,a2
     d30:	01f5d513          	srli	a0,a1,0x1f
     d34:	03068263          	beq	a3,a6,d58 <__lesf2+0x50>
     d38:	03060463          	beq	a2,a6,d60 <__lesf2+0x58>
     d3c:	04069c63          	bnez	a3,d94 <__lesf2+0x8c>
     d40:	0018b593          	seqz	a1,a7
     d44:	02061463          	bnez	a2,d6c <__lesf2+0x64>
     d48:	02071263          	bnez	a4,d6c <__lesf2+0x64>
     d4c:	00000513          	li	a0,0
     d50:	02089263          	bnez	a7,d74 <__lesf2+0x6c>
     d54:	00008067          	ret
     d58:	02089663          	bnez	a7,d84 <__lesf2+0x7c>
     d5c:	02d61c63          	bne	a2,a3,d94 <__lesf2+0x8c>
     d60:	02071263          	bnez	a4,d84 <__lesf2+0x7c>
     d64:	00069663          	bnez	a3,d70 <__lesf2+0x68>
     d68:	0018b593          	seqz	a1,a7
     d6c:	02059063          	bnez	a1,d8c <__lesf2+0x84>
     d70:	02a78863          	beq	a5,a0,da0 <__lesf2+0x98>
     d74:	00100513          	li	a0,1
     d78:	fc078ee3          	beqz	a5,d54 <__lesf2+0x4c>
     d7c:	fff00513          	li	a0,-1
     d80:	00008067          	ret
     d84:	00200513          	li	a0,2
     d88:	00008067          	ret
     d8c:	fe0508e3          	beqz	a0,d7c <__lesf2+0x74>
     d90:	00008067          	ret
     d94:	fc061ee3          	bnez	a2,d70 <__lesf2+0x68>
     d98:	fc071ce3          	bnez	a4,d70 <__lesf2+0x68>
     d9c:	fd9ff06f          	j	d74 <__lesf2+0x6c>
     da0:	00d64c63          	blt	a2,a3,db8 <__lesf2+0xb0>
     da4:	fec6c4e3          	blt	a3,a2,d8c <__lesf2+0x84>
     da8:	01176863          	bltu	a4,a7,db8 <__lesf2+0xb0>
     dac:	fee8e0e3          	bltu	a7,a4,d8c <__lesf2+0x84>
     db0:	00000513          	li	a0,0
     db4:	00008067          	ret
     db8:	fc0512e3          	bnez	a0,d7c <__lesf2+0x74>
     dbc:	00100513          	li	a0,1
     dc0:	00008067          	ret

00000dc4 <__mulsf3>:
     dc4:	fd010113          	addi	sp,sp,-48
     dc8:	02912223          	sw	s1,36(sp)
     dcc:	01755493          	srli	s1,a0,0x17
     dd0:	02812423          	sw	s0,40(sp)
     dd4:	01512a23          	sw	s5,20(sp)
     dd8:	00951413          	slli	s0,a0,0x9
     ddc:	02112623          	sw	ra,44(sp)
     de0:	03212023          	sw	s2,32(sp)
     de4:	01312e23          	sw	s3,28(sp)
     de8:	01412c23          	sw	s4,24(sp)
     dec:	01612823          	sw	s6,16(sp)
     df0:	0ff4f493          	zext.b	s1,s1
     df4:	00945413          	srli	s0,s0,0x9
     df8:	01f55a93          	srli	s5,a0,0x1f
     dfc:	10048a63          	beqz	s1,f10 <__mulsf3+0x14c>
     e00:	0ff00793          	li	a5,255
     e04:	14f48263          	beq	s1,a5,f48 <__mulsf3+0x184>
     e08:	00341413          	slli	s0,s0,0x3
     e0c:	040007b7          	lui	a5,0x4000
     e10:	00f46433          	or	s0,s0,a5
     e14:	f8148493          	addi	s1,s1,-127
     e18:	00000993          	li	s3,0
     e1c:	00000b13          	li	s6,0
     e20:	0175d793          	srli	a5,a1,0x17
     e24:	00959a13          	slli	s4,a1,0x9
     e28:	0ff7f793          	zext.b	a5,a5
     e2c:	009a5a13          	srli	s4,s4,0x9
     e30:	01f5d913          	srli	s2,a1,0x1f
     e34:	10078263          	beqz	a5,f38 <__mulsf3+0x174>
     e38:	0ff00713          	li	a4,255
     e3c:	04e78463          	beq	a5,a4,e84 <__mulsf3+0xc0>
     e40:	003a1a13          	slli	s4,s4,0x3
     e44:	f8178793          	addi	a5,a5,-127 # 3ffff81 <_thread_mem_size+0x3fdff81>
     e48:	04000737          	lui	a4,0x4000
     e4c:	00ea6a33          	or	s4,s4,a4
     e50:	00f484b3          	add	s1,s1,a5
     e54:	00000593          	li	a1,0
     e58:	012ac6b3          	xor	a3,s5,s2
     e5c:	00f00793          	li	a5,15
     e60:	00068713          	mv	a4,a3
     e64:	00148613          	addi	a2,s1,1
     e68:	0f37ea63          	bltu	a5,s3,f5c <__mulsf3+0x198>
     e6c:	000017b7          	lui	a5,0x1
     e70:	64878793          	addi	a5,a5,1608 # 1648 <get_switches+0x88>
     e74:	00299993          	slli	s3,s3,0x2
     e78:	00f989b3          	add	s3,s3,a5
     e7c:	0009a783          	lw	a5,0(s3)
     e80:	00078067          	jr	a5
     e84:	0ff48493          	addi	s1,s1,255
     e88:	1c0a1263          	bnez	s4,104c <__mulsf3+0x288>
     e8c:	0029e993          	ori	s3,s3,2
     e90:	00200593          	li	a1,2
     e94:	fc5ff06f          	j	e58 <__mulsf3+0x94>
     e98:	00090713          	mv	a4,s2
     e9c:	000a0413          	mv	s0,s4
     ea0:	00058b13          	mv	s6,a1
     ea4:	00200793          	li	a5,2
     ea8:	18fb0663          	beq	s6,a5,1034 <__mulsf3+0x270>
     eac:	00300793          	li	a5,3
     eb0:	04fb0863          	beq	s6,a5,f00 <__mulsf3+0x13c>
     eb4:	00100793          	li	a5,1
     eb8:	00070693          	mv	a3,a4
     ebc:	12fb1463          	bne	s6,a5,fe4 <__mulsf3+0x220>
     ec0:	00000513          	li	a0,0
     ec4:	00000713          	li	a4,0
     ec8:	01751413          	slli	s0,a0,0x17
     ecc:	00e46433          	or	s0,s0,a4
     ed0:	01f69513          	slli	a0,a3,0x1f
     ed4:	02c12083          	lw	ra,44(sp)
     ed8:	00a46533          	or	a0,s0,a0
     edc:	02812403          	lw	s0,40(sp)
     ee0:	02412483          	lw	s1,36(sp)
     ee4:	02012903          	lw	s2,32(sp)
     ee8:	01c12983          	lw	s3,28(sp)
     eec:	01812a03          	lw	s4,24(sp)
     ef0:	01412a83          	lw	s5,20(sp)
     ef4:	01012b03          	lw	s6,16(sp)
     ef8:	03010113          	addi	sp,sp,48
     efc:	00008067          	ret
     f00:	00000693          	li	a3,0
     f04:	0ff00513          	li	a0,255
     f08:	00400737          	lui	a4,0x400
     f0c:	fbdff06f          	j	ec8 <__mulsf3+0x104>
     f10:	16041c63          	bnez	s0,1088 <__mulsf3+0x2c4>
     f14:	0175d793          	srli	a5,a1,0x17
     f18:	00959a13          	slli	s4,a1,0x9
     f1c:	0ff7f793          	zext.b	a5,a5
     f20:	00400993          	li	s3,4
     f24:	00000493          	li	s1,0
     f28:	00100b13          	li	s6,1
     f2c:	009a5a13          	srli	s4,s4,0x9
     f30:	01f5d913          	srli	s2,a1,0x1f
     f34:	f00792e3          	bnez	a5,e38 <__mulsf3+0x74>
     f38:	120a1063          	bnez	s4,1058 <__mulsf3+0x294>
     f3c:	0019e993          	ori	s3,s3,1
     f40:	00100593          	li	a1,1
     f44:	f15ff06f          	j	e58 <__mulsf3+0x94>
     f48:	12041863          	bnez	s0,1078 <__mulsf3+0x2b4>
     f4c:	00800993          	li	s3,8
     f50:	0ff00493          	li	s1,255
     f54:	00200b13          	li	s6,2
     f58:	ec9ff06f          	j	e20 <__mulsf3+0x5c>
     f5c:	000108b7          	lui	a7,0x10
     f60:	fff88713          	addi	a4,a7,-1 # ffff <_etext+0xe967>
     f64:	01045593          	srli	a1,s0,0x10
     f68:	010a5813          	srli	a6,s4,0x10
     f6c:	00e47433          	and	s0,s0,a4
     f70:	00ea7a33          	and	s4,s4,a4
     f74:	028a0533          	mul	a0,s4,s0
     f78:	03458a33          	mul	s4,a1,s4
     f7c:	01055713          	srli	a4,a0,0x10
     f80:	02880433          	mul	s0,a6,s0
     f84:	014407b3          	add	a5,s0,s4
     f88:	00f707b3          	add	a5,a4,a5
     f8c:	030585b3          	mul	a1,a1,a6
     f90:	0147f463          	bgeu	a5,s4,f98 <__mulsf3+0x1d4>
     f94:	011585b3          	add	a1,a1,a7
     f98:	00010837          	lui	a6,0x10
     f9c:	fff80813          	addi	a6,a6,-1 # ffff <_etext+0xe967>
     fa0:	0107f733          	and	a4,a5,a6
     fa4:	01071713          	slli	a4,a4,0x10
     fa8:	01057533          	and	a0,a0,a6
     fac:	00a70733          	add	a4,a4,a0
     fb0:	00671413          	slli	s0,a4,0x6
     fb4:	0107d793          	srli	a5,a5,0x10
     fb8:	00803433          	snez	s0,s0
     fbc:	01a75713          	srli	a4,a4,0x1a
     fc0:	00b787b3          	add	a5,a5,a1
     fc4:	00e46733          	or	a4,s0,a4
     fc8:	00679793          	slli	a5,a5,0x6
     fcc:	00e7e433          	or	s0,a5,a4
     fd0:	00479713          	slli	a4,a5,0x4
     fd4:	14075463          	bgez	a4,111c <__mulsf3+0x358>
     fd8:	00145793          	srli	a5,s0,0x1
     fdc:	00147413          	andi	s0,s0,1
     fe0:	0087e433          	or	s0,a5,s0
     fe4:	07f60793          	addi	a5,a2,127
     fe8:	0cf05663          	blez	a5,10b4 <__mulsf3+0x2f0>
     fec:	00747713          	andi	a4,s0,7
     ff0:	00070a63          	beqz	a4,1004 <__mulsf3+0x240>
     ff4:	00f47713          	andi	a4,s0,15
     ff8:	00400593          	li	a1,4
     ffc:	00b70463          	beq	a4,a1,1004 <__mulsf3+0x240>
    1000:	00440413          	addi	s0,s0,4
    1004:	00441713          	slli	a4,s0,0x4
    1008:	00075a63          	bgez	a4,101c <__mulsf3+0x258>
    100c:	f80007b7          	lui	a5,0xf8000
    1010:	fff78793          	addi	a5,a5,-1 # f7ffffff <_stack_start+0xb7fdffff>
    1014:	00f47433          	and	s0,s0,a5
    1018:	08060793          	addi	a5,a2,128
    101c:	0fe00713          	li	a4,254
    1020:	0ef74863          	blt	a4,a5,1110 <__mulsf3+0x34c>
    1024:	00641413          	slli	s0,s0,0x6
    1028:	00945713          	srli	a4,s0,0x9
    102c:	0ff7f513          	zext.b	a0,a5
    1030:	e99ff06f          	j	ec8 <__mulsf3+0x104>
    1034:	00070693          	mv	a3,a4
    1038:	0ff00513          	li	a0,255
    103c:	00000713          	li	a4,0
    1040:	e89ff06f          	j	ec8 <__mulsf3+0x104>
    1044:	000a8713          	mv	a4,s5
    1048:	e5dff06f          	j	ea4 <__mulsf3+0xe0>
    104c:	0039e993          	ori	s3,s3,3
    1050:	00300593          	li	a1,3
    1054:	e05ff06f          	j	e58 <__mulsf3+0x94>
    1058:	000a0513          	mv	a0,s4
    105c:	9a0ff0ef          	jal	ra,1fc <__clzsi2>
    1060:	ffb50793          	addi	a5,a0,-5
    1064:	40a484b3          	sub	s1,s1,a0
    1068:	00fa1a33          	sll	s4,s4,a5
    106c:	f8a48493          	addi	s1,s1,-118
    1070:	00000593          	li	a1,0
    1074:	de5ff06f          	j	e58 <__mulsf3+0x94>
    1078:	00c00993          	li	s3,12
    107c:	0ff00493          	li	s1,255
    1080:	00300b13          	li	s6,3
    1084:	d9dff06f          	j	e20 <__mulsf3+0x5c>
    1088:	00040513          	mv	a0,s0
    108c:	00b12623          	sw	a1,12(sp)
    1090:	96cff0ef          	jal	ra,1fc <__clzsi2>
    1094:	ffb50793          	addi	a5,a0,-5
    1098:	f8a00493          	li	s1,-118
    109c:	00c12583          	lw	a1,12(sp)
    10a0:	00f41433          	sll	s0,s0,a5
    10a4:	40a484b3          	sub	s1,s1,a0
    10a8:	00000993          	li	s3,0
    10ac:	00000b13          	li	s6,0
    10b0:	d71ff06f          	j	e20 <__mulsf3+0x5c>
    10b4:	00100593          	li	a1,1
    10b8:	40f585b3          	sub	a1,a1,a5
    10bc:	00078a63          	beqz	a5,10d0 <__mulsf3+0x30c>
    10c0:	01b00793          	li	a5,27
    10c4:	00000513          	li	a0,0
    10c8:	00000713          	li	a4,0
    10cc:	deb7cee3          	blt	a5,a1,ec8 <__mulsf3+0x104>
    10d0:	09e60793          	addi	a5,a2,158
    10d4:	00f417b3          	sll	a5,s0,a5
    10d8:	00f037b3          	snez	a5,a5
    10dc:	00b45433          	srl	s0,s0,a1
    10e0:	00f46433          	or	s0,s0,a5
    10e4:	00747793          	andi	a5,s0,7
    10e8:	00078a63          	beqz	a5,10fc <__mulsf3+0x338>
    10ec:	00f47793          	andi	a5,s0,15
    10f0:	00400713          	li	a4,4
    10f4:	00e78463          	beq	a5,a4,10fc <__mulsf3+0x338>
    10f8:	00440413          	addi	s0,s0,4
    10fc:	00541793          	slli	a5,s0,0x5
    1100:	0207d263          	bgez	a5,1124 <__mulsf3+0x360>
    1104:	00100513          	li	a0,1
    1108:	00000713          	li	a4,0
    110c:	dbdff06f          	j	ec8 <__mulsf3+0x104>
    1110:	0ff00513          	li	a0,255
    1114:	00000713          	li	a4,0
    1118:	db1ff06f          	j	ec8 <__mulsf3+0x104>
    111c:	00048613          	mv	a2,s1
    1120:	ec5ff06f          	j	fe4 <__mulsf3+0x220>
    1124:	00641413          	slli	s0,s0,0x6
    1128:	00945713          	srli	a4,s0,0x9
    112c:	00000513          	li	a0,0
    1130:	d99ff06f          	j	ec8 <__mulsf3+0x104>

00001134 <__subsf3>:
    1134:	008006b7          	lui	a3,0x800
    1138:	ff010113          	addi	sp,sp,-16
    113c:	0175d613          	srli	a2,a1,0x17
    1140:	fff68693          	addi	a3,a3,-1 # 7fffff <_thread_mem_size+0x7dffff>
    1144:	01755793          	srli	a5,a0,0x17
    1148:	00a6f733          	and	a4,a3,a0
    114c:	0ff7f793          	zext.b	a5,a5
    1150:	00b6f6b3          	and	a3,a3,a1
    1154:	0ff67893          	zext.b	a7,a2
    1158:	00912223          	sw	s1,4(sp)
    115c:	01212023          	sw	s2,0(sp)
    1160:	01f55513          	srli	a0,a0,0x1f
    1164:	00112623          	sw	ra,12(sp)
    1168:	00812423          	sw	s0,8(sp)
    116c:	0ff00813          	li	a6,255
    1170:	00070613          	mv	a2,a4
    1174:	00078913          	mv	s2,a5
    1178:	00050493          	mv	s1,a0
    117c:	00371313          	slli	t1,a4,0x3
    1180:	01f5d593          	srli	a1,a1,0x1f
    1184:	00369e13          	slli	t3,a3,0x3
    1188:	41178eb3          	sub	t4,a5,a7
    118c:	15088063          	beq	a7,a6,12cc <__subsf3+0x198>
    1190:	0015c593          	xori	a1,a1,1
    1194:	14b50c63          	beq	a0,a1,12ec <__subsf3+0x1b8>
    1198:	0fd05c63          	blez	t4,1290 <__subsf3+0x15c>
    119c:	12089e63          	bnez	a7,12d8 <__subsf3+0x1a4>
    11a0:	240e0863          	beqz	t3,13f0 <__subsf3+0x2bc>
    11a4:	fffe8e93          	addi	t4,t4,-1
    11a8:	41c30733          	sub	a4,t1,t3
    11ac:	020e8a63          	beqz	t4,11e0 <__subsf3+0xac>
    11b0:	0ff00713          	li	a4,255
    11b4:	10e78263          	beq	a5,a4,12b8 <__subsf3+0x184>
    11b8:	01b00793          	li	a5,27
    11bc:	00100713          	li	a4,1
    11c0:	01d7ce63          	blt	a5,t4,11dc <__subsf3+0xa8>
    11c4:	02000793          	li	a5,32
    11c8:	41d787b3          	sub	a5,a5,t4
    11cc:	00fe17b3          	sll	a5,t3,a5
    11d0:	01de5733          	srl	a4,t3,t4
    11d4:	00f037b3          	snez	a5,a5
    11d8:	00f76733          	or	a4,a4,a5
    11dc:	40e30733          	sub	a4,t1,a4
    11e0:	00571793          	slli	a5,a4,0x5
    11e4:	2007d063          	bgez	a5,13e4 <__subsf3+0x2b0>
    11e8:	04000437          	lui	s0,0x4000
    11ec:	fff40413          	addi	s0,s0,-1 # 3ffffff <_thread_mem_size+0x3fdffff>
    11f0:	00877433          	and	s0,a4,s0
    11f4:	00040513          	mv	a0,s0
    11f8:	804ff0ef          	jal	ra,1fc <__clzsi2>
    11fc:	ffb50513          	addi	a0,a0,-5
    1200:	00a41733          	sll	a4,s0,a0
    1204:	27254463          	blt	a0,s2,146c <__subsf3+0x338>
    1208:	41250533          	sub	a0,a0,s2
    120c:	00150413          	addi	s0,a0,1
    1210:	02000793          	li	a5,32
    1214:	408787b3          	sub	a5,a5,s0
    1218:	00f717b3          	sll	a5,a4,a5
    121c:	00f037b3          	snez	a5,a5
    1220:	00875733          	srl	a4,a4,s0
    1224:	00f76733          	or	a4,a4,a5
    1228:	00000913          	li	s2,0
    122c:	00777793          	andi	a5,a4,7
    1230:	00078a63          	beqz	a5,1244 <__subsf3+0x110>
    1234:	00f77693          	andi	a3,a4,15
    1238:	00400793          	li	a5,4
    123c:	00f68463          	beq	a3,a5,1244 <__subsf3+0x110>
    1240:	00470713          	addi	a4,a4,4 # 400004 <_thread_mem_size+0x3e0004>
    1244:	00571793          	slli	a5,a4,0x5
    1248:	1a07d263          	bgez	a5,13ec <__subsf3+0x2b8>
    124c:	00190793          	addi	a5,s2,1
    1250:	0ff00693          	li	a3,255
    1254:	0014f513          	andi	a0,s1,1
    1258:	1ad78c63          	beq	a5,a3,1410 <__subsf3+0x2dc>
    125c:	00671713          	slli	a4,a4,0x6
    1260:	00975713          	srli	a4,a4,0x9
    1264:	0ff7f793          	zext.b	a5,a5
    1268:	00c12083          	lw	ra,12(sp)
    126c:	00812403          	lw	s0,8(sp)
    1270:	01779793          	slli	a5,a5,0x17
    1274:	00e7e733          	or	a4,a5,a4
    1278:	01f51513          	slli	a0,a0,0x1f
    127c:	00412483          	lw	s1,4(sp)
    1280:	00012903          	lw	s2,0(sp)
    1284:	00a76533          	or	a0,a4,a0
    1288:	01010113          	addi	sp,sp,16
    128c:	00008067          	ret
    1290:	0c0e8663          	beqz	t4,135c <__subsf3+0x228>
    1294:	40f88633          	sub	a2,a7,a5
    1298:	20079463          	bnez	a5,14a0 <__subsf3+0x36c>
    129c:	26030e63          	beqz	t1,1518 <__subsf3+0x3e4>
    12a0:	fff60613          	addi	a2,a2,-1
    12a4:	2a060063          	beqz	a2,1544 <__subsf3+0x410>
    12a8:	0ff00793          	li	a5,255
    12ac:	20f89263          	bne	a7,a5,14b0 <__subsf3+0x37c>
    12b0:	00058493          	mv	s1,a1
    12b4:	00068613          	mv	a2,a3
    12b8:	14060a63          	beqz	a2,140c <__subsf3+0x2d8>
    12bc:	00000513          	li	a0,0
    12c0:	0ff00793          	li	a5,255
    12c4:	00400737          	lui	a4,0x400
    12c8:	fa1ff06f          	j	1268 <__subsf3+0x134>
    12cc:	ec0e02e3          	beqz	t3,1190 <__subsf3+0x5c>
    12d0:	14b50663          	beq	a0,a1,141c <__subsf3+0x2e8>
    12d4:	fbd05ee3          	blez	t4,1290 <__subsf3+0x15c>
    12d8:	0ff00713          	li	a4,255
    12dc:	fce78ee3          	beq	a5,a4,12b8 <__subsf3+0x184>
    12e0:	040007b7          	lui	a5,0x4000
    12e4:	00fe6e33          	or	t3,t3,a5
    12e8:	ed1ff06f          	j	11b8 <__subsf3+0x84>
    12ec:	13d05863          	blez	t4,141c <__subsf3+0x2e8>
    12f0:	0a088063          	beqz	a7,1390 <__subsf3+0x25c>
    12f4:	0ff00713          	li	a4,255
    12f8:	fce780e3          	beq	a5,a4,12b8 <__subsf3+0x184>
    12fc:	040007b7          	lui	a5,0x4000
    1300:	00fe6e33          	or	t3,t3,a5
    1304:	01b00793          	li	a5,27
    1308:	00100713          	li	a4,1
    130c:	01d7ce63          	blt	a5,t4,1328 <__subsf3+0x1f4>
    1310:	02000793          	li	a5,32
    1314:	41d787b3          	sub	a5,a5,t4
    1318:	00fe17b3          	sll	a5,t3,a5
    131c:	01de5733          	srl	a4,t3,t4
    1320:	00f037b3          	snez	a5,a5
    1324:	00f76733          	or	a4,a4,a5
    1328:	00670733          	add	a4,a4,t1
    132c:	00571793          	slli	a5,a4,0x5
    1330:	0a07da63          	bgez	a5,13e4 <__subsf3+0x2b0>
    1334:	00190913          	addi	s2,s2,1
    1338:	0ff00793          	li	a5,255
    133c:	0cf90a63          	beq	s2,a5,1410 <__subsf3+0x2dc>
    1340:	7e0006b7          	lui	a3,0x7e000
    1344:	00175793          	srli	a5,a4,0x1
    1348:	fff68693          	addi	a3,a3,-1 # 7dffffff <_stack_start+0x3dfdffff>
    134c:	00177713          	andi	a4,a4,1
    1350:	00d7f7b3          	and	a5,a5,a3
    1354:	00e7e733          	or	a4,a5,a4
    1358:	ed5ff06f          	j	122c <__subsf3+0xf8>
    135c:	00178813          	addi	a6,a5,1 # 4000001 <_thread_mem_size+0x3fe0001>
    1360:	0fe87813          	andi	a6,a6,254
    1364:	10081e63          	bnez	a6,1480 <__subsf3+0x34c>
    1368:	1c079063          	bnez	a5,1528 <__subsf3+0x3f4>
    136c:	1e030463          	beqz	t1,1554 <__subsf3+0x420>
    1370:	ee0e0ce3          	beqz	t3,1268 <__subsf3+0x134>
    1374:	41c30733          	sub	a4,t1,t3
    1378:	00571693          	slli	a3,a4,0x5
    137c:	1e06da63          	bgez	a3,1570 <__subsf3+0x43c>
    1380:	406e0733          	sub	a4,t3,t1
    1384:	00000913          	li	s2,0
    1388:	00058493          	mv	s1,a1
    138c:	ea1ff06f          	j	122c <__subsf3+0xf8>
    1390:	060e0063          	beqz	t3,13f0 <__subsf3+0x2bc>
    1394:	fffe8e93          	addi	t4,t4,-1
    1398:	01c30733          	add	a4,t1,t3
    139c:	f80e88e3          	beqz	t4,132c <__subsf3+0x1f8>
    13a0:	0ff00713          	li	a4,255
    13a4:	f6e790e3          	bne	a5,a4,1304 <__subsf3+0x1d0>
    13a8:	f11ff06f          	j	12b8 <__subsf3+0x184>
    13ac:	00178913          	addi	s2,a5,1
    13b0:	0fe97593          	andi	a1,s2,254
    13b4:	14059263          	bnez	a1,14f8 <__subsf3+0x3c4>
    13b8:	18079063          	bnez	a5,1538 <__subsf3+0x404>
    13bc:	1c030463          	beqz	t1,1584 <__subsf3+0x450>
    13c0:	ea0e04e3          	beqz	t3,1268 <__subsf3+0x134>
    13c4:	01c30733          	add	a4,t1,t3
    13c8:	00571793          	slli	a5,a4,0x5
    13cc:	00000913          	li	s2,0
    13d0:	0007da63          	bgez	a5,13e4 <__subsf3+0x2b0>
    13d4:	fc0007b7          	lui	a5,0xfc000
    13d8:	fff78793          	addi	a5,a5,-1 # fbffffff <_stack_start+0xbbfdffff>
    13dc:	00f77733          	and	a4,a4,a5
    13e0:	00100913          	li	s2,1
    13e4:	00777793          	andi	a5,a4,7
    13e8:	e40796e3          	bnez	a5,1234 <__subsf3+0x100>
    13ec:	00375613          	srli	a2,a4,0x3
    13f0:	0ff00793          	li	a5,255
    13f4:	ecf902e3          	beq	s2,a5,12b8 <__subsf3+0x184>
    13f8:	00961713          	slli	a4,a2,0x9
    13fc:	00975713          	srli	a4,a4,0x9
    1400:	0ff97793          	zext.b	a5,s2
    1404:	0014f513          	andi	a0,s1,1
    1408:	e61ff06f          	j	1268 <__subsf3+0x134>
    140c:	0014f513          	andi	a0,s1,1
    1410:	0ff00793          	li	a5,255
    1414:	00000713          	li	a4,0
    1418:	e51ff06f          	j	1268 <__subsf3+0x134>
    141c:	f80e88e3          	beqz	t4,13ac <__subsf3+0x278>
    1420:	40f88733          	sub	a4,a7,a5
    1424:	0c079063          	bnez	a5,14e4 <__subsf3+0x3b0>
    1428:	12030e63          	beqz	t1,1564 <__subsf3+0x430>
    142c:	fff70713          	addi	a4,a4,-1 # 3fffff <_thread_mem_size+0x3dffff>
    1430:	14070e63          	beqz	a4,158c <__subsf3+0x458>
    1434:	0ff00793          	li	a5,255
    1438:	e6f88ee3          	beq	a7,a5,12b4 <__subsf3+0x180>
    143c:	01b00693          	li	a3,27
    1440:	00100793          	li	a5,1
    1444:	00e6ce63          	blt	a3,a4,1460 <__subsf3+0x32c>
    1448:	02000793          	li	a5,32
    144c:	40e787b3          	sub	a5,a5,a4
    1450:	00f317b3          	sll	a5,t1,a5
    1454:	00e35733          	srl	a4,t1,a4
    1458:	00f037b3          	snez	a5,a5
    145c:	00f767b3          	or	a5,a4,a5
    1460:	01c78733          	add	a4,a5,t3
    1464:	00088913          	mv	s2,a7
    1468:	ec5ff06f          	j	132c <__subsf3+0x1f8>
    146c:	fc0007b7          	lui	a5,0xfc000
    1470:	fff78793          	addi	a5,a5,-1 # fbffffff <_stack_start+0xbbfdffff>
    1474:	40a90933          	sub	s2,s2,a0
    1478:	00f77733          	and	a4,a4,a5
    147c:	db1ff06f          	j	122c <__subsf3+0xf8>
    1480:	41c30433          	sub	s0,t1,t3
    1484:	00541793          	slli	a5,s0,0x5
    1488:	0807c263          	bltz	a5,150c <__subsf3+0x3d8>
    148c:	d60414e3          	bnez	s0,11f4 <__subsf3+0xc0>
    1490:	00000513          	li	a0,0
    1494:	00000793          	li	a5,0
    1498:	00000713          	li	a4,0
    149c:	dcdff06f          	j	1268 <__subsf3+0x134>
    14a0:	0ff00793          	li	a5,255
    14a4:	e0f886e3          	beq	a7,a5,12b0 <__subsf3+0x17c>
    14a8:	040007b7          	lui	a5,0x4000
    14ac:	00f36333          	or	t1,t1,a5
    14b0:	01b00793          	li	a5,27
    14b4:	00100713          	li	a4,1
    14b8:	00c7ce63          	blt	a5,a2,14d4 <__subsf3+0x3a0>
    14bc:	02000793          	li	a5,32
    14c0:	40c787b3          	sub	a5,a5,a2
    14c4:	00f317b3          	sll	a5,t1,a5
    14c8:	00c35733          	srl	a4,t1,a2
    14cc:	00f037b3          	snez	a5,a5
    14d0:	00f76733          	or	a4,a4,a5
    14d4:	40ee0733          	sub	a4,t3,a4
    14d8:	00088913          	mv	s2,a7
    14dc:	00058493          	mv	s1,a1
    14e0:	d01ff06f          	j	11e0 <__subsf3+0xac>
    14e4:	0ff00793          	li	a5,255
    14e8:	dcf886e3          	beq	a7,a5,12b4 <__subsf3+0x180>
    14ec:	040007b7          	lui	a5,0x4000
    14f0:	00f36333          	or	t1,t1,a5
    14f4:	f49ff06f          	j	143c <__subsf3+0x308>
    14f8:	0ff00793          	li	a5,255
    14fc:	f0f90ae3          	beq	s2,a5,1410 <__subsf3+0x2dc>
    1500:	01c30733          	add	a4,t1,t3
    1504:	00175713          	srli	a4,a4,0x1
    1508:	eddff06f          	j	13e4 <__subsf3+0x2b0>
    150c:	406e0433          	sub	s0,t3,t1
    1510:	00058493          	mv	s1,a1
    1514:	ce1ff06f          	j	11f4 <__subsf3+0xc0>
    1518:	00068613          	mv	a2,a3
    151c:	00088913          	mv	s2,a7
    1520:	00058493          	mv	s1,a1
    1524:	ecdff06f          	j	13f0 <__subsf3+0x2bc>
    1528:	00031a63          	bnez	t1,153c <__subsf3+0x408>
    152c:	d80e08e3          	beqz	t3,12bc <__subsf3+0x188>
    1530:	00058493          	mv	s1,a1
    1534:	d81ff06f          	j	12b4 <__subsf3+0x180>
    1538:	d6030ee3          	beqz	t1,12b4 <__subsf3+0x180>
    153c:	d60e0ee3          	beqz	t3,12b8 <__subsf3+0x184>
    1540:	d7dff06f          	j	12bc <__subsf3+0x188>
    1544:	406e0733          	sub	a4,t3,t1
    1548:	00088913          	mv	s2,a7
    154c:	00058493          	mv	s1,a1
    1550:	c91ff06f          	j	11e0 <__subsf3+0xac>
    1554:	020e0263          	beqz	t3,1578 <__subsf3+0x444>
    1558:	00058513          	mv	a0,a1
    155c:	00068713          	mv	a4,a3
    1560:	d09ff06f          	j	1268 <__subsf3+0x134>
    1564:	00068613          	mv	a2,a3
    1568:	00088913          	mv	s2,a7
    156c:	e85ff06f          	j	13f0 <__subsf3+0x2bc>
    1570:	00000913          	li	s2,0
    1574:	e60718e3          	bnez	a4,13e4 <__subsf3+0x2b0>
    1578:	00000513          	li	a0,0
    157c:	00000713          	li	a4,0
    1580:	ce9ff06f          	j	1268 <__subsf3+0x134>
    1584:	00068713          	mv	a4,a3
    1588:	ce1ff06f          	j	1268 <__subsf3+0x134>
    158c:	01c30733          	add	a4,t1,t3
    1590:	00088913          	mv	s2,a7
    1594:	d99ff06f          	j	132c <__subsf3+0x1f8>

00001598 <putpix>:
    1598:	7c451073          	csrw	0x7c4,a0
    159c:	7c559073          	csrw	0x7c5,a1
    15a0:	7c70d073          	csrwi	0x7c7,1
    15a4:	00008067          	ret

000015a8 <put_leds>:
    15a8:	7c151073          	csrw	0x7c1,a0
    15ac:	00008067          	ret

000015b0 <put_ssd>:
    15b0:	7c251073          	csrw	0x7c2,a0
    15b4:	00008067          	ret

000015b8 <get_btns>:
    15b8:	fc302573          	csrr	a0,0xfc3
    15bc:	00008067          	ret

000015c0 <get_switches>:
    15c0:	fc202573          	csrr	a0,0xfc2
    15c4:	00008067          	ret
    15c8:	095c                	.2byte	0x95c
    15ca:	0000                	.2byte	0x0
    15cc:	07c0                	.2byte	0x7c0
    15ce:	0000                	.2byte	0x0
    15d0:	0880                	.2byte	0x880
    15d2:	0000                	.2byte	0x0
    15d4:	074c                	.2byte	0x74c
    15d6:	0000                	.2byte	0x0
    15d8:	0880                	.2byte	0x880
    15da:	0000                	.2byte	0x0
    15dc:	0774                	.2byte	0x774
    15de:	0000                	.2byte	0x0
    15e0:	0880                	.2byte	0x880
    15e2:	0000                	.2byte	0x0
    15e4:	074c                	.2byte	0x74c
    15e6:	0000                	.2byte	0x0
    15e8:	07c0                	.2byte	0x7c0
    15ea:	0000                	.2byte	0x0
    15ec:	07c0                	.2byte	0x7c0
    15ee:	0000                	.2byte	0x0
    15f0:	0774                	.2byte	0x774
    15f2:	0000                	.2byte	0x0
    15f4:	074c                	.2byte	0x74c
    15f6:	0000                	.2byte	0x0
    15f8:	0758                	.2byte	0x758
    15fa:	0000                	.2byte	0x0
    15fc:	0758                	.2byte	0x758
    15fe:	0000                	.2byte	0x0
    1600:	0758                	.2byte	0x758
    1602:	0000                	.2byte	0x0
    1604:	0774                	.2byte	0x774
    1606:	0000                	.2byte	0x0
    1608:	07c0                	.2byte	0x7c0
    160a:	0000                	.2byte	0x0
    160c:	07c0                	.2byte	0x7c0
    160e:	0000                	.2byte	0x0
    1610:	0880                	.2byte	0x880
    1612:	0000                	.2byte	0x0
    1614:	08f0                	.2byte	0x8f0
    1616:	0000                	.2byte	0x0
    1618:	0880                	.2byte	0x880
    161a:	0000                	.2byte	0x0
    161c:	0774                	.2byte	0x774
    161e:	0000                	.2byte	0x0
    1620:	0880                	.2byte	0x880
    1622:	0000                	.2byte	0x0
    1624:	08f0                	.2byte	0x8f0
    1626:	0000                	.2byte	0x0
    1628:	07c0                	.2byte	0x7c0
    162a:	0000                	.2byte	0x0
    162c:	07c0                	.2byte	0x7c0
    162e:	0000                	.2byte	0x0
    1630:	0774                	.2byte	0x774
    1632:	0000                	.2byte	0x0
    1634:	08f0                	.2byte	0x8f0
    1636:	0000                	.2byte	0x0
    1638:	0758                	.2byte	0x758
    163a:	0000                	.2byte	0x0
    163c:	0758                	.2byte	0x758
    163e:	0000                	.2byte	0x0
    1640:	0758                	.2byte	0x758
    1642:	0000                	.2byte	0x0
    1644:	0774                	.2byte	0x774
    1646:	0000                	.2byte	0x0
    1648:	0f5c                	.2byte	0xf5c
    164a:	0000                	.2byte	0x0
    164c:	0e9c                	.2byte	0xe9c
    164e:	0000                	.2byte	0x0
    1650:	0e9c                	.2byte	0xe9c
    1652:	0000                	.2byte	0x0
    1654:	0e98                	.2byte	0xe98
    1656:	0000                	.2byte	0x0
    1658:	0ea4                	.2byte	0xea4
    165a:	0000                	.2byte	0x0
    165c:	0ea4                	.2byte	0xea4
    165e:	0000                	.2byte	0x0
    1660:	0f00                	.2byte	0xf00
    1662:	0000                	.2byte	0x0
    1664:	0e98                	.2byte	0xe98
    1666:	0000                	.2byte	0x0
    1668:	0ea4                	.2byte	0xea4
    166a:	0000                	.2byte	0x0
    166c:	0f00                	.2byte	0xf00
    166e:	0000                	.2byte	0x0
    1670:	0ea4                	.2byte	0xea4
    1672:	0000                	.2byte	0x0
    1674:	0e98                	.2byte	0xe98
    1676:	0000                	.2byte	0x0
    1678:	1044                	.2byte	0x1044
    167a:	0000                	.2byte	0x0
    167c:	1044                	.2byte	0x1044
    167e:	0000                	.2byte	0x0
    1680:	1044                	.2byte	0x1044
    1682:	0000                	.2byte	0x0
    1684:	0f00                	.2byte	0xf00
    1686:	0000                	.2byte	0x0
    1688:	6548                	.2byte	0x6548
    168a:	6c6c                	.2byte	0x6c6c
    168c:	77202c6f          	jal	s8,3dfe <_etext+0x2766>
    1690:	646c726f          	jal	tp,c8cd6 <_thread_mem_size+0xa8cd6>
    1694:	0021                	.2byte	0x21
	...
