
test_join.out:     file format elf32-littleriscv

Contents of section .text:
 0000 37010240 13010100 b7020200 93820200  7..@............
 0010 b3025140 33025000 1301c1ff 37070000  ..Q@3.P.....7...
 0020 ef008000 73001000 b7170000 9387076c  ....s..........l
 0030 03a60700 83a64700 03a78700 83d7c700  ......G.........
 0040 130101fe 232a9100 232c8100 23282101  ....#*..#,..#(!.
 0050 232e1100 2320c100 2322d100 2324e100  #...# ..#"..#$..
 0060 2316f100 93040013 13041000 13090002  #...............
 0070 13050400 93060100 13041400 13061000  ................
 0080 93850400 ef000015 e31424ff 13041000  ..........$.....
 0090 93040002 13050400 13041400 ef00c010  ................
 00a0 e31a94fe 13050100 ef00c006 6f000000  ............o...
 00b0 732710dc b7060200 93860600 93071700  s'..............
 00c0 b387d702 37060040 13060600 b387c700  ....7..@........
 00d0 3301f000 b387d740 3302f000 1301c1ff  3......@3.......
 00e0 b7070040 13172700 93870700 b387e700  ...@..'.........
 00f0 03a70700 13050700 83a70708 e7800700  ................
 0100 93074013 e7800700 6f000000 731015bc  ..@.....o...s...
 0110 67800000 83470500 638a0700 739017bc  g....G..c...s...
 0120 83471500 13051500 e39a07fe 67800000  .G..........g...
 0130 6ff05ffe 130101ff 23261100 f32700bc  o._.....#&...'..
 0140 e38e07fe 37150000 1305056b eff09ffc  ....7......k....
 0150 f32710dc 7390079c 7350109c 7350229c  .'..s...sP..sP".
 0160 f32700bc 8320c100 13010101 67800000  .'... ......g...
 0170 732510dc 67800000 7310059c 7390159c  s%..g...s...s...
 0180 7310269c 67800000 f32700bc e38e07fe  s.&.g....'......
 0190 732510dc 7310059c 73d0109c 7350229c  s%..s...s...sP".
 01a0 f32700bc 67800000 73d0309c f32700bc  .'..g...s.0..'..
 01b0 e38e07fe 7310059c 7350109c 73d0219c  ....s...sP..s.!.
 01c0 f32700dc 732700bc e39007fe 13050000  .'..s'..........
 01d0 67800000 f32700bc e38e07fe b7070040  g....'.........@
 01e0 13172500 93870700 b387e700 23a0b708  ..%.........#...
 01f0 23a0d700 7310059c 9307000b 7390179c  #...s.......s...
 0200 7350219c 7310059c 7310169c 7350239c  sP!.s...s...sP#.
 0210 7310059c 73d0109c 7350229c f32700bc  s...s...sP"..'..
 0220 67800000 13075000 93070001 13060002  g.....P.........
 0230 93051000 b356f540 1307f7ff 63880600  .....V.@....c...
 0240 638eb700 3306f640 13850600 93d71740  c...3..@.......@
 0250 e31207fe 3305a640 67800000 1305e6ff  ....3..@g.......
 0260 67800000 b7068000 130101ff 13577501  g............Wu.
 0270 9386f6ff 13d67501 33f8a600 23229100  ......u.3...#"..
 0280 b3f6b600 9374f70f 23202101 1376f60f  .....t..# !..v..
 0290 1359f501 23261100 23248100 93d5f501  .Y..#&..#$......
 02a0 93070800 13870400 13030900 131e3800  ..............8.
 02b0 13953600 b388c440 6308b912 6358100f  ..6....@c...cX..
 02c0 630c0618 9307f00f 6386f410 b7070004  c.......c.......
 02d0 3365f500 1307b001 93071000 634e1701  3e..........cN..
 02e0 13070002 33071741 3317e500 b3571501  ....3..A3....W..
 02f0 3337e000 b3e7e700 b307fe40 13975700  37.........@..W.
 0300 635c071e 37040004 1304f4ff 33f48700  c\..7.......3...
 0310 13050400 eff01ff1 1305b5ff b317a400  ................
 0320 63409526 33079540 13041700 13070002  c@.&3..@........
 0330 33078740 3397e700 3337e000 b3d78700  3..@3...37......
 0340 b3e7e700 93040000 13f77700 630a0700  ..........w.c...
 0350 13f7f700 93064000 6304d700 93874700  ......@.c.....G.
 0360 13975700 635e0718 13871400 9306f00f  ..W.c^..........
 0370 13030900 6308d71a 93976700 93d79700  ....c.....g.....
 0380 1377f70f 8320c100 03248100 13157701  .w... ...$....w.
 0390 b367f500 1315f301 83244100 03290100  .g.......$A..)..
 03a0 33e5a700 13010101 67800000 6384080c  3.......g...c...
 03b0 33089640 63900420 630a0e26 1308f8ff  3..@c.. c..&....
 03c0 630c0828 9307f00f 631ef61e 13890500  c..(....c.......
 03d0 13880600 63060814 13030000 1307f00f  ....c...........
 03e0 b7074000 6ff01ffa 63541015 630c060a  ..@.o...cT..c...
 03f0 9307f00f e380f4fe b7070004 3365f500  ............3e..
 0400 1307b001 93071000 634e1701 13070002  ........cN......
 0410 33071741 3317e500 b3571501 3337e000  3..A3....W..37..
 0420 b3e7e700 b387c701 13975700 6356070c  ..........W.cV..
 0430 93841400 1307f00f 6386e40e b706007e  ........c......~
 0440 13d71700 9386f6ff 93f71700 3377d700  ............3w..
 0450 b367f700 6ff05fef 6306050a 9388f8ff  .g..o._.c.......
 0460 b307ae40 e38c08e8 9307f00f e394f4e6  ...@............
 0470 6ff05ff6 13861400 1376e60f 631c0610  o._......v..c...
 0480 639e041a 63020e1e e30e05ee b307ae40  c...c..........@
 0490 93965700 63d8061e b307c541 13890500  ..W.c......A....
 04a0 6ff09fea 63000506 9388f8ff b307ae00  o...c...........
 04b0 e38c08f6 9307f00f e394f4f4 6ff09ff1  ............o...
 04c0 93841400 13f6e40f 63120614 63100718  ........c...c...
 04d0 63020e1c e30805ea b307ae00 13975700  c.............W.
 04e0 93040000 635a0700 370700fc 1307f7ff  ....cZ..7.......
 04f0 b3f7e700 93041000 13f77700 e31a07e4  ..........w.....
 0500 13d83700 9307f00f e386f4ec 93179800  ..7.............
 0510 93d79700 13f7f40f 13030900 6ff09fe6  ............o...
 0520 13030900 1307f00f 93070000 6ff09fe5  ............o...
 0530 e38808f8 b3079640 6390040c 630e0e12  .......@c...c...
 0540 9387f7ff 638c0714 1307f00f e302e6e8  ....c...........
 0550 9306b001 13071000 63cef600 13070002  ........c.......
 0560 3307f740 3317ee00 b357fe00 3337e000  3..@3....W..37..
 0570 33e7e700 b307a700 93040600 6ff0dfea  3...........o...
 0580 370700fc 1307f7ff b384a440 b3f7e700  7..........@....
 0590 6ff09fdb 3304ae40 93175400 63c20708  o...3..@..T.c...
 05a0 e31804d6 13030000 13070000 93070000  ................
 05b0 6ff05fdd 9307f00f e30af6e0 b7070004  o._.............
 05c0 336efe00 1307b001 93071000 634e0701  3n..........cN..
 05d0 13070002 33070741 3317ee00 b3570e01  ....3..A3....W..
 05e0 3337e000 b3e7e700 b307f540 93040600  37.........@....
 05f0 13890500 6ff09fd0 1307f00f e30ae6dc  ....o...........
 0600 37070004 336eee00 6ff09ff4 9307f00f  7...3n..o.......
 0610 e38af4f0 b307ae00 93d71700 6ff0dfed  ............o...
 0620 3304c541 13890500 6ff09fce 13880600  3..A....o.......
 0630 93040600 13890500 6ff0dfec 631a0e00  ........o...c...
 0640 e30c05d8 13890500 6ff09fd8 e3020ed8  ........o.......
 0650 e30205d8 6ff05fd8 b307c541 93040600  ....o._....A....
 0660 13890500 6ff09fc9 63000502 13830500  ....o...c.......
 0670 93870600 6ff01fd1 13880600 93040600  ....o...........
 0680 6ff05fe8 e39a07e6 13030000 93070000  o._.............
 0690 6ff05fcf 93870600 6ff0dfce b307ae00  o._.....o.......
 06a0 93040600 6ff05fd8 130101fc 93577501  ....o._......Wu.
 06b0 232a9102 23225103 232e7101 93169500  #*..#"Q.#.q.....
 06c0 9354f501 232e1102 232c8102 23282103  .T..#...#,..#(!.
 06d0 23263103 23244103 23206103 93f7f70f  #&1.#$A.# a.....
 06e0 93da9600 938b0400 638a0712 1306f00f  ........c.......
 06f0 6380c714 93963a00 37060004 b3eac600  c.....:.7.......
 0700 138a17f8 13040000 130b0000 93d77501  ..............u.
 0710 93999500 93f7f70f 93d99900 13d9f501  ................
 0720 638a070c 1307f00f 638ee702 37070004  c.......c...7...
 0730 93993900 938717f8 b3e9e900 330afa40  ..9.........3..@
 0740 13070000 3364e400 b7170000 9387075f  ....3d........._
 0750 13142400 3304f400 83270400 b3c42401  ..$.3....'....$.
 0760 67800700 130a1af0 639c0912 13072000  g.......c..... .
 0770 6f00c008 938a0900 930b0900 130b0700  o...............
 0780 93071000 6302fb18 63060b12 93072000  ....c...c..... .
 0790 630afb04 93073000 631efb10 93040000  c.....0.c.......
 07a0 9307f00f b7064000 8320c103 03248103  ......@.. ...$..
 07b0 13957701 9394f401 3365d500 03290103  ..w.....3e...)..
 07c0 8329c102 032a8102 832a4102 032b0102  .)...*...*A..+..
 07d0 832bc101 33659500 83244103 13010104  .+..3e...$A.....
 07e0 67800000 93840b00 9307f00f 93060000  g...............
 07f0 6ff09ffb 63960908 13071000 3364e400  o...c.......3d..
 0800 b7170000 93870763 13142400 3304f400  .......c..$.3...
 0810 83270400 b3c42401 67800700 639c0a02  .'....$.g...c...
 0820 13044000 130a0000 130b1000 6ff01fee  ..@.........o...
 0830 639a0a00 13048000 130af00f 130b2000  c............. .
 0840 6ff0dfec 1304c000 130af00f 130b3000  o.............0.
 0850 6ff0dfeb 13850a00 2326b100 eff09f9c  o.......#&......
 0860 9307b5ff b39afa00 9307a0f8 8325c100  .............%..
 0870 338aa740 13040000 130b0000 6ff01fe9  3..@........o...
 0880 13850900 eff01f9a 1307b5ff b307aa00  ................
 0890 b399e900 138a6707 13070000 6ff09fea  ......g.....o...
 08a0 13073000 6ff01fea 93070000 93060000  ..0.o...........
 08b0 6ff09fef 93840b00 1307fa07 6356e006  o...........cV..
 08c0 93f77a00 638a0700 93f7fa00 93064000  ..z.c.........@.
 08d0 6384d700 938a4a00 93974a00 63da0700  c.....J...J.c...
 08e0 b70700f8 9387f7ff b3fafa00 13070a08  ................
 08f0 9307e00f e3cae7ee 93966a00 93d69600  ..........j.....
 0900 9377f70f 6ff05fea 93840b00 93070000  .w..o._.........
 0910 93060000 6ff05fe9 930b0900 130b0700  ....o._.........
 0920 930a0000 6ff0dfe5 13061000 3306e640  ....o.......3..@
 0930 630a0700 1307b001 93070000 93060000  c...............
 0940 e344c7e6 9307ea09 b397fa00 b3d6ca00  .D..............
 0950 b33af000 b3e65601 93f77600 638a0700  .:....V...v.c...
 0960 93f7f600 13074000 6384e700 93864600  ......@.c.....F.
 0970 93975600 63da070c 93071000 93060000  ..V.c...........
 0980 6ff09fe2 37070100 13955900 1307f7ff  o...7.....Y.....
 0990 93570501 3377e500 63f43a09 b3d5fa02  .W..3w..c.:.....
 09a0 130afaff 13860a00 93060000 3308b702  ............3...
 09b0 3376f602 13160601 b366d600 63fe0601  3v.......f..c...
 09c0 b386a600 1386f5ff 63eca606 63fa0607  ........c...c...
 09d0 9385e5ff b386a600 b3860641 b3daf602  ...........A....
 09e0 b3f6f602 b387ea02 13970601 637ef700  ............c~..
 09f0 3307a700 9386faff 6360a704 637ef702  3.......c`..c~..
 0a00 938aeaff 3307a700 93960501 3307f740  ....3.......3..@
 0a10 b3e65601 3337e000 b3eae600 6ff0dfe9  ..V.37......o...
 0a20 13d61a00 b355f602 9396fa01 93d60601  .....U..........
 0a30 3308b702 6ff0dff7 938a0600 6ff0dffc  3...o.......o...
 0a40 93050600 6ff05ff9 93966600 93d69600  ....o._...f.....
 0a50 93070000 6ff05fd5 130101ff 23261100  ....o._.....#&..
 0a60 23248100 23229100 630a0504 1357f541  #$..#"..c....W.A
 0a70 b344a700 b384e440 93070500 13850400  .D.....@........
 0a80 13d4f701 eff00ffa 9307e009 b387a740  ...............@
 0a90 13076009 93060500 634af704 13078000  ..`.....cJ......
 0aa0 13f5f70f 6356d700 938686ff b394d400  ....cV..........
 0ab0 93949400 93d49400 6f000001 13040000  ........o.......
 0ac0 13050000 93040000 8320c100 9317f401  ......... ......
 0ad0 03248100 13157501 33659500 3365f500  .$....u.3e..3e..
 0ae0 83244100 13010101 67800000 13079009  .$A.....g.......
 0af0 6350f702 1305b501 13075000 3395a400  cP........P.3...
 0b00 3307d740 b3d4e400 3335a000 b3e4a400  3..@....35......
 0b10 13075000 6356d700 1387b6ff b394e400  ..P.cV..........
 0b20 370600fc 1306f6ff 93f57400 33f7c400  7.........t.3...
 0b30 63840502 93f4f400 93054000 638eb400  c.........@.c...
 0b40 13074700 93155700 63d80500 9307f009  ..G...W.c.......
 0b50 3377c700 b387d740 93146700 93d49400  3w.....@..g.....
 0b60 13f5f70f 6ff05ff6 130101ff 23261100  ....o._.....#&..
 0b70 23248100 63080504 13040500 eff08fea  #$..c...........
 0b80 9307e009 b387a740 13076009 634cf704  .......@..`.cL..
 0b90 13078000 93f7f70f 6356a700 130585ff  ........cV......
 0ba0 3314a400 13149400 13549400 13957701  3........T....w.
 0bb0 8320c100 33658500 03248100 13010101  . ..3e...$......
 0bc0 67800000 93070000 13040000 13957701  g.............w.
 0bd0 8320c100 33658500 03248100 13010101  . ..3e...$......
 0be0 67800000 13079009 6350f702 1307b501  g.......cP......
 0bf0 93065000 3317e400 b386a640 3337e000  ..P.3......@37..
 0c00 3354d400 33648700 13075000 6356a700  3T..3d....P.cV..
 0c10 1307b5ff 3314e400 b70600fc 9386f6ff  ....3...........
 0c20 13767400 3377d400 63040602 1374f400  .vt.3w..c....t..
 0c30 13064000 630ec400 13074700 13165700  ..@.c.....G...W.
 0c40 63580600 9307f009 3377d700 b387a740  cX......3w.....@
 0c50 13146700 93f7f70f 13549400 13957701  ..g......T....w.
 0c60 8320c100 33658500 03248100 13010101  . ..3e...$......
 0c70 67800000 93567501 37078000 1307f7ff  g....Vu.7.......
 0c80 13d67501 93f6f60f 1308f00f b378a700  ..u..........x..
 0c90 9357f501 3377b700 1376f60f 13d5f501  .W..3w...v......
 0ca0 63820603 63040603 63980604 93b51800  c...c...c.......
 0cb0 631e0602 631c0702 13050000 639e0800  c...c.......c...
 0cc0 67800000 63920806 6318d602 631e0704  g...c...c...c...
 0cd0 638c0600 6388a702 13051000 e38207fe  c...c...........
 0ce0 1305f0ff 67800000 93b51800 e38405fe  ....g...........
 0cf0 e30805fe 67800000 e31e06fc e31c07fc  ....g...........
 0d00 6ff09ffd 634cd600 e3c4c6fe 63681701  o...cL......ch..
 0d10 e3e0e8fe 13050000 67800000 e31205fc  ........g.......
 0d20 13051000 67800000 1305e0ff 67800000  ....g.......g...
 0d30 93567501 37078000 1307f7ff 13d67501  .Vu.7.........u.
 0d40 93f6f60f 1308f00f b378a700 9357f501  .........x...W..
 0d50 3377b700 1376f60f 13d5f501 63820603  3w...v......c...
 0d60 63040603 639c0604 93b51800 63140602  c...c.......c...
 0d70 63120702 13050000 63920802 67800000  c.......c...g...
 0d80 63960802 631cd602 63120702 63960600  c...c...c...c...
 0d90 93b51800 63900502 6388a702 13051000  ....c...c.......
 0da0 e38e07fc 1305f0ff 67800000 13052000  ........g..... .
 0db0 67800000 e30805fe 67800000 e31e06fc  g.......g.......
 0dc0 e31c07fc 6ff09ffd 634cd600 e3c4c6fe  ....o...cL......
 0dd0 63681701 e3e0e8fe 13050000 67800000  ch..........g...
 0de0 e31205fc 13051000 67800000 130101fd  ........g.......
 0df0 23229102 93547501 23248102 232a5101  #"...Tu.#$..#*Q.
 0e00 13149500 23261102 23202103 232e3101  ....#&..# !.#.1.
 0e10 232c4101 23286101 93f4f40f 13549400  #,A.#(a......T..
 0e20 935af501 638a0410 9307f00f 6382f414  .Z..c.......c...
 0e30 13143400 b7070004 3364f400 938414f8  ..4.....3d......
 0e40 93090000 130b0000 93d77501 139a9500  ..........u.....
 0e50 93f7f70f 135a9a00 13d9f501 63820710  .....Z......c...
 0e60 1307f00f 6384e704 131a3a00 938717f8  ....c.....:.....
 0e70 37070004 336aea00 b384f400 93050000  7...3j..........
 0e80 b3c62a01 9307f000 13870600 13861400  ..*.............
 0e90 63ea370f b7170000 93870767 93992900  c.7........g..).
 0ea0 b389f900 83a70900 67800700 9384f40f  ........g.......
 0eb0 63120a1c 93e92900 93052000 6ff05ffc  c.....)... .o._.
 0ec0 13070900 13040a00 138b0500 93072000  .............. .
 0ed0 6306fb18 93073000 6308fb04 93071000  c.....0.c.......
 0ee0 93060700 6314fb12 13050000 13070000  ....c...........
 0ef0 13147501 3364e400 1395f601 8320c102  ..u.3d....... ..
 0f00 3365a400 03248102 83244102 03290102  3e...$...$A..)..
 0f10 8329c101 032a8101 832a4101 032b0101  .)...*...*A..+..
 0f20 13010103 67800000 93060000 1305f00f  ....g...........
 0f30 37074000 6ff0dffb 631c0416 93d77501  7.@.o...c.....u.
 0f40 139a9500 93f7f70f 93094000 93040000  ..........@.....
 0f50 130b1000 135a9a00 13d9f501 e39207f0  .....Z..........
 0f60 63100a12 93e91900 93051000 6ff05ff1  c...........o._.
 0f70 63180412 93098000 9304f00f 130b2000  c............. .
 0f80 6ff09fec b7080100 1387f8ff 93550401  o............U..
 0f90 13580a01 3374e400 337aea00 33058a02  .X..3t..3z..3...
 0fa0 338a4503 13570501 33048802 b3074401  3.E..W..3.....D.
 0fb0 b307f700 b3850503 63f44701 b3851501  ........c.G.....
 0fc0 37080100 1308f8ff 33f70701 13170701  7.......3.......
 0fd0 33750501 3307a700 13146700 93d70701  3u..3.....g.....
 0fe0 33348000 1357a701 b387b700 3367e400  34...W......3g..
 0ff0 93976700 33e4e700 13974700 63540714  ..g.3.....G.cT..
 1000 93571400 13741400 33e48700 9307f607  .W...t..3.......
 1010 6356f00c 13777400 630a0700 1377f400  cV...wt.c....w..
 1020 93054000 6304b700 13044400 13174400  ..@.c.....D...D.
 1030 635a0700 b70700f8 9387f7ff 3374f400  cZ..........3t..
 1040 93070608 1307e00f 6348f70e 13146400  ........cH....d.
 1050 13579400 13f5f70f 6ff09fe9 93060700  .W......o.......
 1060 1305f00f 13070000 6ff09fe8 13870a00  ........o.......
 1070 6ff0dfe5 93e93900 93053000 6ff05fe0  o.....9...0.o._.
 1080 13050a00 eff00f9a 9307b5ff b384a440  ...............@
 1090 331afa00 9384a4f8 93050000 6ff05fde  3...........o._.
 10a0 9309c000 9304f00f 130b3000 6ff0dfd9  ..........0.o...
 10b0 13050400 2326b100 eff0cf96 9307b5ff  ....#&..........
 10c0 9304a0f8 8325c100 3314f400 b384a440  .....%..3......@
 10d0 93090000 130b0000 6ff01fd7 93051000  ........o.......
 10e0 b385f540 638a0700 9307b001 13050000  ...@c...........
 10f0 13070000 e3ceb7de 9307e609 b317f400  ................
 1100 b337f000 3354b400 3364f400 93777400  .7..3T..3d...wt.
 1110 638a0700 9377f400 13074000 6384e700  c....w....@.c...
 1120 13044400 93175400 63d20702 13051000  ..D...T.c.......
 1130 13070000 6ff0dfdb 1305f00f 13070000  ....o...........
 1140 6ff01fdb 13860400 6ff05fec 13146400  o.......o._...d.
 1150 13579400 13050000 6ff09fd9 b7068000  .W......o.......
 1160 130101ff 13d67501 9386f6ff 93577501  ......u......Wu.
 1170 33f7a600 93f7f70f b3f6b600 9378f60f  3............x..
 1180 23229100 23202101 1355f501 23261100  #"..# !..U..#&..
 1190 23248100 1308f00f 13060700 13890700  #$..............
 11a0 93040500 13133700 93d5f501 139e3600  ......7.......6.
 11b0 b38e1741 63800815 93c51500 630cb514  ...Ac.......c...
 11c0 635cd00f 639e0812 63080e24 938efeff  c\..c...c..$....
 11d0 3307c341 638a0e02 1307f00f 6382e710  3..Ac.......c...
 11e0 9307b001 13071000 63ced701 93070002  ........c.......
 11f0 b387d741 b317fe00 3357de01 b337f000  ...A....3W...7..
 1200 3367f700 3307e340 93175700 63d00720  3g..3..@..W.c.. 
 1210 37040004 1304f4ff 33748700 13050400  7.......3t......
 1220 eff04f80 1305b5ff 3317a400 63442527  ..O.....3...cD%'
 1230 33052541 13041500 93070002 b3878740  3.%A...........@
 1240 b317f700 b337f000 33578700 3367f700  .....7..3W..3g..
 1250 13090000 93777700 638a0700 9376f700  .....ww.c....v..
 1260 93074000 6384f600 13074700 93175700  ..@.c.....G...W.
 1270 63d2071a 93071900 9306f00f 13f51400  c...............
 1280 638cd71a 13176700 13579700 93f7f70f  c.....g..W......
 1290 8320c100 03248100 93977701 33e7e700  . ...$....w.3...
 12a0 1315f501 83244100 03290100 3365a700  .....$A..)..3e..
 12b0 13010101 67800000 63860e0c 3386f840  ....g...c...3..@
 12c0 63940720 630e0326 1306f6ff 6300062a  c.. c..&....c..*
 12d0 9307f00f 6392f820 93840500 13860600  ....c.. ........
 12e0 630a0614 13050000 9307f00f 37074000  c...........7.@.
 12f0 6ff01ffa e3020eec 6306b514 e35ed0fb  o.......c....^..
 1300 1307f00f e38ee7fc b7070004 336efe00  ............3n..
 1310 6ff01fed 6358d013 6380080a 1307f00f  o...cX..c.......
 1320 e380e7fc b7070004 336efe00 9307b001  ........3n......
 1330 13071000 63ced701 93070002 b387d741  ....c..........A
 1340 b317fe00 3357de01 b337f000 3367f700  ....3W...7..3g..
 1350 33076700 93175700 63da070a 13091900  3.g...W.c.......
 1360 9307f00f 630af90c b706007e 93571700  ....c......~.W..
 1370 9386f6ff 13771700 b3f7d700 33e7e700  .....w......3...
 1380 6ff05fed 13881700 1378e80f 631e0810  o._......x..c...
 1390 6390071c 6304031e e30c0eee 3307c341  c...c.......3..A
 13a0 93165700 63da061e 33076e40 13090000  ..W.c...3.n@....
 13b0 93840500 6ff01fea 63000e06 938efeff  ....o...c.......
 13c0 3307c301 e3880ef8 1307f00f e390e7f6  3...............
 13d0 6ff01ff1 13891700 9375e90f 63920514  o........u..c...
 13e0 63900718 6304031c e3040eea 3307c301  c...c.......3...
 13f0 93175700 13090000 63da0700 b70700fc  ..W.....c.......
 1400 9387f7ff 3377f700 13091000 93777700  ....3w.......ww.
 1410 e39607e4 13563700 9307f00f e302f9ec  .....V7.........
 1420 13179600 13579700 9377f90f 13f51400  .....W...w......
 1430 6ff01fe6 13f51400 9307f00f 13070000  o...............
 1440 6ff01fe5 e3880ef8 3387f840 6390070c  o.......3..@c...
 1450 630e0312 1307f7ff 630e0714 9307f00f  c.......c.......
 1460 e38ef8e6 9306b001 93071000 63cee600  ............c...
 1470 93070002 b387e740 b317f300 3357e300  .......@....3W..
 1480 b337f000 b367f700 3387c701 13890800  .7...g..3.......
 1490 6ff05fec b70700fc 9387f7ff 3309a940  o._.........3..@
 14a0 3377f700 6ff01fdb 3304c341 93175400  3w..o...3..A..T.
 14b0 63c20708 e31404d6 13050000 93070000  c...............
 14c0 13070000 6ff0dfdc 9307f00f e386f8e0  ....o...........
 14d0 b7070004 3363f300 9307b001 13071000  ....3c..........
 14e0 63cec700 93070002 b387c740 b317f300  c..........@....
 14f0 3357c300 b337f000 3367f700 3307ee40  3W...7..3g..3..@
 1500 13890800 93840500 6ff01fd0 9307f00f  ........o.......
 1510 e386f8dc b7070004 3363f300 6ff09ff4  ........3c..o...
 1520 9307f00f e30af9f0 3307c301 13571700  ........3....W..
 1530 6ff0dfed 33046e40 93840500 6ff01fce  o...3.n@....o...
 1540 13860600 13890800 93840500 6ff0dfec  ............o...
 1550 631a0300 e3080ed8 93840500 6ff01fd8  c...........o...
 1560 e30e03d6 e30e0ed6 6ff0dfd7 33076e40  ........o...3.n@
 1570 13890800 93840500 6ff01fc9 63020e02  ........o...c...
 1580 13850500 13870600 6ff09fd0 13860600  ........o.......
 1590 13890800 6ff05fe8 13090000 e31807e6  ....o._.........
 15a0 13050000 13070000 6ff09fce 13870600  ........o.......
 15b0 6ff01fce 3307c301 13890800 6ff09fd9  o...3.......o...
 15c0 7310457c 7390557c 73d0707c 67800000  s.E|s.U|s.p|g...
 15d0 7310157c 67800000 7310257c 67800000  s..|g...s.%|g...
 15e0 732530fc 67800000 732520fc 67800000  s%0.g...s% .g...
 15f0 84090000 e8070000 a8080000 74070000  ............t...
 1600 a8080000 9c070000 a8080000 74070000  ............t...
 1610 e8070000 e8070000 9c070000 74070000  ............t...
 1620 80070000 80070000 80070000 9c070000  ................
 1630 e8070000 e8070000 a8080000 18090000  ................
 1640 a8080000 9c070000 a8080000 18090000  ................
 1650 e8070000 e8070000 9c070000 18090000  ................
 1660 80070000 80070000 80070000 9c070000  ................
 1670 840f0000 c40e0000 c40e0000 c00e0000  ................
 1680 cc0e0000 cc0e0000 280f0000 c00e0000  ........(.......
 1690 cc0e0000 280f0000 cc0e0000 c00e0000  ....(...........
 16a0 6c100000 6c100000 6c100000 280f0000  l...l...l...(...
 16b0 45786974 696e6720 74687265 61640000  Exiting thread..
 16c0 48656c6c 6f2c2077 6f726c64 21000000  Hello, world!...
Contents of section .riscv.attributes:
 0000 41240000 00726973 63760001 1a000000  A$...riscv......
 0010 04100572 76333269 3270305f 6d327030  ...rv32i2p0_m2p0
 0020 0008010a 0b                          .....           
Contents of section .comment:
 0000 4743433a 20286732 65653565 34333030  GCC: (g2ee5e4300
 0010 31382920 31322e32 2e300047 43433a20  18) 12.2.0.GCC: 
 0020 28292039 2e332e30 00                 () 9.3.0.       

Disassembly of section .text:

00000000 <_start>:
       0:	40020137          	lui	sp,0x40020
       4:	00010113          	mv	sp,sp
       8:	000202b7          	lui	t0,0x20
       c:	00028293          	mv	t0,t0
      10:	405102b3          	sub	t0,sp,t0
      14:	00500233          	add	tp,zero,t0
      18:	ffc10113          	addi	sp,sp,-4 # 4001fffc <_stack_end+0xfffc>
      1c:	00000737          	lui	a4,0x0
      20:	008000ef          	jal	ra,28 <main>
      24:	00100073          	ebreak

00000028 <main>:
      28:	000017b7          	lui	a5,0x1
      2c:	6c078793          	addi	a5,a5,1728 # 16c0 <get_switches+0xd8>
      30:	0007a603          	lw	a2,0(a5)
      34:	0047a683          	lw	a3,4(a5)
      38:	0087a703          	lw	a4,8(a5)
      3c:	00c7d783          	lhu	a5,12(a5)
      40:	fe010113          	addi	sp,sp,-32
      44:	00912a23          	sw	s1,20(sp)
      48:	00812c23          	sw	s0,24(sp)
      4c:	01212823          	sw	s2,16(sp)
      50:	00112e23          	sw	ra,28(sp)
      54:	00c12023          	sw	a2,0(sp)
      58:	00d12223          	sw	a3,4(sp)
      5c:	00e12423          	sw	a4,8(sp)
      60:	00f11623          	sh	a5,12(sp)
      64:	13000493          	li	s1,304
      68:	00100413          	li	s0,1
      6c:	02000913          	li	s2,32
      70:	00040513          	mv	a0,s0
      74:	00010693          	mv	a3,sp
      78:	00140413          	addi	s0,s0,1
      7c:	00100613          	li	a2,1
      80:	00048593          	mv	a1,s1
      84:	150000ef          	jal	ra,1d4 <spawn_thread>
      88:	ff2414e3          	bne	s0,s2,70 <main+0x48>
      8c:	00100413          	li	s0,1
      90:	02000493          	li	s1,32
      94:	00040513          	mv	a0,s0
      98:	00140413          	addi	s0,s0,1
      9c:	10c000ef          	jal	ra,1a8 <join_thread>
      a0:	fe941ae3          	bne	s0,s1,94 <main+0x6c>
      a4:	00010513          	mv	a0,sp
      a8:	06c000ef          	jal	ra,114 <thread_print>
      ac:	0000006f          	j	ac <main+0x84>

000000b0 <_thread_start>:
      b0:	dc102773          	csrr	a4,0xdc1
      b4:	000206b7          	lui	a3,0x20
      b8:	00068693          	mv	a3,a3
      bc:	00170793          	addi	a5,a4,1 # 1 <_start+0x1>
      c0:	02d787b3          	mul	a5,a5,a3
      c4:	40000637          	lui	a2,0x40000
      c8:	00060613          	mv	a2,a2
      cc:	00c787b3          	add	a5,a5,a2
      d0:	00f00133          	add	sp,zero,a5
      d4:	40d787b3          	sub	a5,a5,a3
      d8:	00f00233          	add	tp,zero,a5
      dc:	ffc10113          	addi	sp,sp,-4
      e0:	400007b7          	lui	a5,0x40000
      e4:	00271713          	slli	a4,a4,0x2
      e8:	00078793          	mv	a5,a5
      ec:	00e787b3          	add	a5,a5,a4
      f0:	0007a703          	lw	a4,0(a5) # 40000000 <_ram_start>
      f4:	00070513          	mv	a0,a4
      f8:	0807a783          	lw	a5,128(a5)
      fc:	000780e7          	jalr	a5
     100:	13400793          	li	a5,308
     104:	000780e7          	jalr	a5
     108:	0000006f          	j	108 <_thread_start+0x58>

0000010c <thread_print_char>:
     10c:	bc151073          	csrw	0xbc1,a0
     110:	00008067          	ret

00000114 <thread_print>:
     114:	00054783          	lbu	a5,0(a0)
     118:	00078a63          	beqz	a5,12c <thread_print+0x18>
     11c:	bc179073          	csrw	0xbc1,a5
     120:	00154783          	lbu	a5,1(a0)
     124:	00150513          	addi	a0,a0,1
     128:	fe079ae3          	bnez	a5,11c <thread_print+0x8>
     12c:	00008067          	ret

00000130 <do_work>:
     130:	fe5ff06f          	j	114 <thread_print>

00000134 <exit_thread>:
     134:	ff010113          	addi	sp,sp,-16
     138:	00112623          	sw	ra,12(sp)
     13c:	bc0027f3          	csrr	a5,0xbc0
     140:	fe078ee3          	beqz	a5,13c <exit_thread+0x8>
     144:	00001537          	lui	a0,0x1
     148:	6b050513          	addi	a0,a0,1712 # 16b0 <get_switches+0xc8>
     14c:	fc9ff0ef          	jal	ra,114 <thread_print>
     150:	dc1027f3          	csrr	a5,0xdc1
     154:	9c079073          	csrw	0x9c0,a5
     158:	9c105073          	csrwi	0x9c1,0
     15c:	9c225073          	csrwi	0x9c2,4
     160:	bc0027f3          	csrr	a5,0xbc0
     164:	00c12083          	lw	ra,12(sp)
     168:	01010113          	addi	sp,sp,16
     16c:	00008067          	ret

00000170 <get_current_thread_id>:
     170:	dc102573          	csrr	a0,0xdc1
     174:	00008067          	ret

00000178 <update_table>:
     178:	9c051073          	csrw	0x9c0,a0
     17c:	9c159073          	csrw	0x9c1,a1
     180:	9c261073          	csrw	0x9c2,a2
     184:	00008067          	ret

00000188 <yield>:
     188:	bc0027f3          	csrr	a5,0xbc0
     18c:	fe078ee3          	beqz	a5,188 <yield>
     190:	dc102573          	csrr	a0,0xdc1
     194:	9c051073          	csrw	0x9c0,a0
     198:	9c10d073          	csrwi	0x9c1,1
     19c:	9c225073          	csrwi	0x9c2,4
     1a0:	bc0027f3          	csrr	a5,0xbc0
     1a4:	00008067          	ret

000001a8 <join_thread>:
     1a8:	9c30d073          	csrwi	0x9c3,1
     1ac:	bc0027f3          	csrr	a5,0xbc0
     1b0:	fe078ee3          	beqz	a5,1ac <join_thread+0x4>
     1b4:	9c051073          	csrw	0x9c0,a0
     1b8:	9c105073          	csrwi	0x9c1,0
     1bc:	9c21d073          	csrwi	0x9c2,3
     1c0:	dc0027f3          	csrr	a5,0xdc0
     1c4:	bc002773          	csrr	a4,0xbc0
     1c8:	fe0790e3          	bnez	a5,1a8 <join_thread>
     1cc:	00000513          	li	a0,0
     1d0:	00008067          	ret

000001d4 <spawn_thread>:
     1d4:	bc0027f3          	csrr	a5,0xbc0
     1d8:	fe078ee3          	beqz	a5,1d4 <spawn_thread>
     1dc:	400007b7          	lui	a5,0x40000
     1e0:	00251713          	slli	a4,a0,0x2
     1e4:	00078793          	mv	a5,a5
     1e8:	00e787b3          	add	a5,a5,a4
     1ec:	08b7a023          	sw	a1,128(a5) # 40000080 <initial_pc>
     1f0:	00d7a023          	sw	a3,0(a5)
     1f4:	9c051073          	csrw	0x9c0,a0
     1f8:	0b000793          	li	a5,176
     1fc:	9c179073          	csrw	0x9c1,a5
     200:	9c215073          	csrwi	0x9c2,2
     204:	9c051073          	csrw	0x9c0,a0
     208:	9c161073          	csrw	0x9c1,a2
     20c:	9c235073          	csrwi	0x9c2,6
     210:	9c051073          	csrw	0x9c0,a0
     214:	9c10d073          	csrwi	0x9c1,1
     218:	9c225073          	csrwi	0x9c2,4
     21c:	bc0027f3          	csrr	a5,0xbc0
     220:	00008067          	ret

00000224 <__clzsi2>:
     224:	00500713          	li	a4,5
     228:	01000793          	li	a5,16
     22c:	02000613          	li	a2,32
     230:	00100593          	li	a1,1
     234:	40f556b3          	sra	a3,a0,a5
     238:	fff70713          	addi	a4,a4,-1
     23c:	00068863          	beqz	a3,24c <__clzsi2+0x28>
     240:	00b78e63          	beq	a5,a1,25c <__clzsi2+0x38>
     244:	40f60633          	sub	a2,a2,a5
     248:	00068513          	mv	a0,a3
     24c:	4017d793          	srai	a5,a5,0x1
     250:	fe0712e3          	bnez	a4,234 <__clzsi2+0x10>
     254:	40a60533          	sub	a0,a2,a0
     258:	00008067          	ret
     25c:	ffe60513          	addi	a0,a2,-2 # 3ffffffe <_thread_mem_size+0x3ffdfffe>
     260:	00008067          	ret

00000264 <__addsf3>:
     264:	008006b7          	lui	a3,0x800
     268:	ff010113          	addi	sp,sp,-16
     26c:	01755713          	srli	a4,a0,0x17
     270:	fff68693          	addi	a3,a3,-1 # 7fffff <_thread_mem_size+0x7dffff>
     274:	0175d613          	srli	a2,a1,0x17
     278:	00a6f833          	and	a6,a3,a0
     27c:	00912223          	sw	s1,4(sp)
     280:	00b6f6b3          	and	a3,a3,a1
     284:	0ff77493          	zext.b	s1,a4
     288:	01212023          	sw	s2,0(sp)
     28c:	0ff67613          	zext.b	a2,a2
     290:	01f55913          	srli	s2,a0,0x1f
     294:	00112623          	sw	ra,12(sp)
     298:	00812423          	sw	s0,8(sp)
     29c:	01f5d593          	srli	a1,a1,0x1f
     2a0:	00080793          	mv	a5,a6
     2a4:	00048713          	mv	a4,s1
     2a8:	00090313          	mv	t1,s2
     2ac:	00381e13          	slli	t3,a6,0x3
     2b0:	00369513          	slli	a0,a3,0x3
     2b4:	40c488b3          	sub	a7,s1,a2
     2b8:	12b90863          	beq	s2,a1,3e8 <__addsf3+0x184>
     2bc:	0f105863          	blez	a7,3ac <__addsf3+0x148>
     2c0:	18060c63          	beqz	a2,458 <__addsf3+0x1f4>
     2c4:	0ff00793          	li	a5,255
     2c8:	10f48663          	beq	s1,a5,3d4 <__addsf3+0x170>
     2cc:	040007b7          	lui	a5,0x4000
     2d0:	00f56533          	or	a0,a0,a5
     2d4:	01b00713          	li	a4,27
     2d8:	00100793          	li	a5,1
     2dc:	01174e63          	blt	a4,a7,2f8 <__addsf3+0x94>
     2e0:	02000713          	li	a4,32
     2e4:	41170733          	sub	a4,a4,a7
     2e8:	00e51733          	sll	a4,a0,a4
     2ec:	011557b3          	srl	a5,a0,a7
     2f0:	00e03733          	snez	a4,a4
     2f4:	00e7e7b3          	or	a5,a5,a4
     2f8:	40fe07b3          	sub	a5,t3,a5
     2fc:	00579713          	slli	a4,a5,0x5
     300:	1e075c63          	bgez	a4,4f8 <__addsf3+0x294>
     304:	04000437          	lui	s0,0x4000
     308:	fff40413          	addi	s0,s0,-1 # 3ffffff <_thread_mem_size+0x3fdffff>
     30c:	0087f433          	and	s0,a5,s0
     310:	00040513          	mv	a0,s0
     314:	f11ff0ef          	jal	ra,224 <__clzsi2>
     318:	ffb50513          	addi	a0,a0,-5
     31c:	00a417b3          	sll	a5,s0,a0
     320:	26954063          	blt	a0,s1,580 <__addsf3+0x31c>
     324:	40950733          	sub	a4,a0,s1
     328:	00170413          	addi	s0,a4,1
     32c:	02000713          	li	a4,32
     330:	40870733          	sub	a4,a4,s0
     334:	00e79733          	sll	a4,a5,a4
     338:	00e03733          	snez	a4,a4
     33c:	0087d7b3          	srl	a5,a5,s0
     340:	00e7e7b3          	or	a5,a5,a4
     344:	00000493          	li	s1,0
     348:	0077f713          	andi	a4,a5,7
     34c:	00070a63          	beqz	a4,360 <__addsf3+0xfc>
     350:	00f7f713          	andi	a4,a5,15
     354:	00400693          	li	a3,4
     358:	00d70463          	beq	a4,a3,360 <__addsf3+0xfc>
     35c:	00478793          	addi	a5,a5,4 # 4000004 <_thread_mem_size+0x3fe0004>
     360:	00579713          	slli	a4,a5,0x5
     364:	18075e63          	bgez	a4,500 <__addsf3+0x29c>
     368:	00148713          	addi	a4,s1,1
     36c:	0ff00693          	li	a3,255
     370:	00090313          	mv	t1,s2
     374:	1ad70863          	beq	a4,a3,524 <__addsf3+0x2c0>
     378:	00679793          	slli	a5,a5,0x6
     37c:	0097d793          	srli	a5,a5,0x9
     380:	0ff77713          	zext.b	a4,a4
     384:	00c12083          	lw	ra,12(sp)
     388:	00812403          	lw	s0,8(sp)
     38c:	01771513          	slli	a0,a4,0x17
     390:	00f567b3          	or	a5,a0,a5
     394:	01f31513          	slli	a0,t1,0x1f
     398:	00412483          	lw	s1,4(sp)
     39c:	00012903          	lw	s2,0(sp)
     3a0:	00a7e533          	or	a0,a5,a0
     3a4:	01010113          	addi	sp,sp,16
     3a8:	00008067          	ret
     3ac:	0c088463          	beqz	a7,474 <__addsf3+0x210>
     3b0:	40960833          	sub	a6,a2,s1
     3b4:	20049063          	bnez	s1,5b4 <__addsf3+0x350>
     3b8:	260e0a63          	beqz	t3,62c <__addsf3+0x3c8>
     3bc:	fff80813          	addi	a6,a6,-1
     3c0:	28080c63          	beqz	a6,658 <__addsf3+0x3f4>
     3c4:	0ff00793          	li	a5,255
     3c8:	1ef61e63          	bne	a2,a5,5c4 <__addsf3+0x360>
     3cc:	00058913          	mv	s2,a1
     3d0:	00068813          	mv	a6,a3
     3d4:	14080663          	beqz	a6,520 <__addsf3+0x2bc>
     3d8:	00000313          	li	t1,0
     3dc:	0ff00713          	li	a4,255
     3e0:	004007b7          	lui	a5,0x400
     3e4:	fa1ff06f          	j	384 <__addsf3+0x120>
     3e8:	15105463          	blez	a7,530 <__addsf3+0x2cc>
     3ec:	0a060c63          	beqz	a2,4a4 <__addsf3+0x240>
     3f0:	0ff00793          	li	a5,255
     3f4:	fef480e3          	beq	s1,a5,3d4 <__addsf3+0x170>
     3f8:	040007b7          	lui	a5,0x4000
     3fc:	00f56533          	or	a0,a0,a5
     400:	01b00713          	li	a4,27
     404:	00100793          	li	a5,1
     408:	01174e63          	blt	a4,a7,424 <__addsf3+0x1c0>
     40c:	02000713          	li	a4,32
     410:	41170733          	sub	a4,a4,a7
     414:	00e51733          	sll	a4,a0,a4
     418:	011557b3          	srl	a5,a0,a7
     41c:	00e03733          	snez	a4,a4
     420:	00e7e7b3          	or	a5,a5,a4
     424:	01c787b3          	add	a5,a5,t3
     428:	00579713          	slli	a4,a5,0x5
     42c:	0c075663          	bgez	a4,4f8 <__addsf3+0x294>
     430:	00148493          	addi	s1,s1,1
     434:	0ff00713          	li	a4,255
     438:	0ee48663          	beq	s1,a4,524 <__addsf3+0x2c0>
     43c:	7e0006b7          	lui	a3,0x7e000
     440:	0017d713          	srli	a4,a5,0x1
     444:	fff68693          	addi	a3,a3,-1 # 7dffffff <_stack_start+0x3dfdffff>
     448:	0017f793          	andi	a5,a5,1
     44c:	00d77733          	and	a4,a4,a3
     450:	00f767b3          	or	a5,a4,a5
     454:	ef5ff06f          	j	348 <__addsf3+0xe4>
     458:	0a050663          	beqz	a0,504 <__addsf3+0x2a0>
     45c:	fff88893          	addi	a7,a7,-1
     460:	40ae07b3          	sub	a5,t3,a0
     464:	e8088ce3          	beqz	a7,2fc <__addsf3+0x98>
     468:	0ff00793          	li	a5,255
     46c:	e6f494e3          	bne	s1,a5,2d4 <__addsf3+0x70>
     470:	f65ff06f          	j	3d4 <__addsf3+0x170>
     474:	00148613          	addi	a2,s1,1
     478:	0fe67613          	andi	a2,a2,254
     47c:	10061c63          	bnez	a2,594 <__addsf3+0x330>
     480:	1a049e63          	bnez	s1,63c <__addsf3+0x3d8>
     484:	1e0e0263          	beqz	t3,668 <__addsf3+0x404>
     488:	ee050ee3          	beqz	a0,384 <__addsf3+0x120>
     48c:	40ae07b3          	sub	a5,t3,a0
     490:	00579693          	slli	a3,a5,0x5
     494:	1e06d863          	bgez	a3,684 <__addsf3+0x420>
     498:	41c507b3          	sub	a5,a0,t3
     49c:	00058913          	mv	s2,a1
     4a0:	ea9ff06f          	j	348 <__addsf3+0xe4>
     4a4:	06050063          	beqz	a0,504 <__addsf3+0x2a0>
     4a8:	fff88893          	addi	a7,a7,-1
     4ac:	00ae07b3          	add	a5,t3,a0
     4b0:	f6088ce3          	beqz	a7,428 <__addsf3+0x1c4>
     4b4:	0ff00793          	li	a5,255
     4b8:	f4f494e3          	bne	s1,a5,400 <__addsf3+0x19c>
     4bc:	f19ff06f          	j	3d4 <__addsf3+0x170>
     4c0:	00148493          	addi	s1,s1,1
     4c4:	0fe4f613          	andi	a2,s1,254
     4c8:	14061263          	bnez	a2,60c <__addsf3+0x3a8>
     4cc:	18071063          	bnez	a4,64c <__addsf3+0x3e8>
     4d0:	1c0e0263          	beqz	t3,694 <__addsf3+0x430>
     4d4:	ea0508e3          	beqz	a0,384 <__addsf3+0x120>
     4d8:	00ae07b3          	add	a5,t3,a0
     4dc:	00579713          	slli	a4,a5,0x5
     4e0:	00000493          	li	s1,0
     4e4:	00075a63          	bgez	a4,4f8 <__addsf3+0x294>
     4e8:	fc000737          	lui	a4,0xfc000
     4ec:	fff70713          	addi	a4,a4,-1 # fbffffff <_stack_start+0xbbfdffff>
     4f0:	00e7f7b3          	and	a5,a5,a4
     4f4:	00100493          	li	s1,1
     4f8:	0077f713          	andi	a4,a5,7
     4fc:	e4071ae3          	bnez	a4,350 <__addsf3+0xec>
     500:	0037d813          	srli	a6,a5,0x3
     504:	0ff00793          	li	a5,255
     508:	ecf486e3          	beq	s1,a5,3d4 <__addsf3+0x170>
     50c:	00981793          	slli	a5,a6,0x9
     510:	0097d793          	srli	a5,a5,0x9
     514:	0ff4f713          	zext.b	a4,s1
     518:	00090313          	mv	t1,s2
     51c:	e69ff06f          	j	384 <__addsf3+0x120>
     520:	00090313          	mv	t1,s2
     524:	0ff00713          	li	a4,255
     528:	00000793          	li	a5,0
     52c:	e59ff06f          	j	384 <__addsf3+0x120>
     530:	f80888e3          	beqz	a7,4c0 <__addsf3+0x25c>
     534:	409607b3          	sub	a5,a2,s1
     538:	0c049063          	bnez	s1,5f8 <__addsf3+0x394>
     53c:	120e0e63          	beqz	t3,678 <__addsf3+0x414>
     540:	fff78793          	addi	a5,a5,-1 # 3ffffff <_thread_mem_size+0x3fdffff>
     544:	14078c63          	beqz	a5,69c <__addsf3+0x438>
     548:	0ff00713          	li	a4,255
     54c:	e8e602e3          	beq	a2,a4,3d0 <__addsf3+0x16c>
     550:	01b00693          	li	a3,27
     554:	00100713          	li	a4,1
     558:	00f6ce63          	blt	a3,a5,574 <__addsf3+0x310>
     55c:	02000713          	li	a4,32
     560:	40f70733          	sub	a4,a4,a5
     564:	00ee1733          	sll	a4,t3,a4
     568:	00fe57b3          	srl	a5,t3,a5
     56c:	00e03733          	snez	a4,a4
     570:	00e7e733          	or	a4,a5,a4
     574:	00a707b3          	add	a5,a4,a0
     578:	00060493          	mv	s1,a2
     57c:	eadff06f          	j	428 <__addsf3+0x1c4>
     580:	fc000737          	lui	a4,0xfc000
     584:	fff70713          	addi	a4,a4,-1 # fbffffff <_stack_start+0xbbfdffff>
     588:	40a484b3          	sub	s1,s1,a0
     58c:	00e7f7b3          	and	a5,a5,a4
     590:	db9ff06f          	j	348 <__addsf3+0xe4>
     594:	40ae0433          	sub	s0,t3,a0
     598:	00541793          	slli	a5,s0,0x5
     59c:	0807c263          	bltz	a5,620 <__addsf3+0x3bc>
     5a0:	d60418e3          	bnez	s0,310 <__addsf3+0xac>
     5a4:	00000313          	li	t1,0
     5a8:	00000713          	li	a4,0
     5ac:	00000793          	li	a5,0
     5b0:	dd5ff06f          	j	384 <__addsf3+0x120>
     5b4:	0ff00793          	li	a5,255
     5b8:	e0f60ae3          	beq	a2,a5,3cc <__addsf3+0x168>
     5bc:	040007b7          	lui	a5,0x4000
     5c0:	00fe6e33          	or	t3,t3,a5
     5c4:	01b00713          	li	a4,27
     5c8:	00100793          	li	a5,1
     5cc:	01074e63          	blt	a4,a6,5e8 <__addsf3+0x384>
     5d0:	02000713          	li	a4,32
     5d4:	41070733          	sub	a4,a4,a6
     5d8:	00ee1733          	sll	a4,t3,a4
     5dc:	010e57b3          	srl	a5,t3,a6
     5e0:	00e03733          	snez	a4,a4
     5e4:	00e7e7b3          	or	a5,a5,a4
     5e8:	40f507b3          	sub	a5,a0,a5
     5ec:	00060493          	mv	s1,a2
     5f0:	00058913          	mv	s2,a1
     5f4:	d09ff06f          	j	2fc <__addsf3+0x98>
     5f8:	0ff00713          	li	a4,255
     5fc:	dce60ae3          	beq	a2,a4,3d0 <__addsf3+0x16c>
     600:	04000737          	lui	a4,0x4000
     604:	00ee6e33          	or	t3,t3,a4
     608:	f49ff06f          	j	550 <__addsf3+0x2ec>
     60c:	0ff00793          	li	a5,255
     610:	f0f48ae3          	beq	s1,a5,524 <__addsf3+0x2c0>
     614:	00ae07b3          	add	a5,t3,a0
     618:	0017d793          	srli	a5,a5,0x1
     61c:	eddff06f          	j	4f8 <__addsf3+0x294>
     620:	41c50433          	sub	s0,a0,t3
     624:	00058913          	mv	s2,a1
     628:	ce9ff06f          	j	310 <__addsf3+0xac>
     62c:	00068813          	mv	a6,a3
     630:	00060493          	mv	s1,a2
     634:	00058913          	mv	s2,a1
     638:	ecdff06f          	j	504 <__addsf3+0x2a0>
     63c:	000e1a63          	bnez	t3,650 <__addsf3+0x3ec>
     640:	d8050ce3          	beqz	a0,3d8 <__addsf3+0x174>
     644:	00058913          	mv	s2,a1
     648:	d89ff06f          	j	3d0 <__addsf3+0x16c>
     64c:	d80e02e3          	beqz	t3,3d0 <__addsf3+0x16c>
     650:	d80502e3          	beqz	a0,3d4 <__addsf3+0x170>
     654:	d85ff06f          	j	3d8 <__addsf3+0x174>
     658:	41c507b3          	sub	a5,a0,t3
     65c:	00060493          	mv	s1,a2
     660:	00058913          	mv	s2,a1
     664:	c99ff06f          	j	2fc <__addsf3+0x98>
     668:	02050063          	beqz	a0,688 <__addsf3+0x424>
     66c:	00058313          	mv	t1,a1
     670:	00068793          	mv	a5,a3
     674:	d11ff06f          	j	384 <__addsf3+0x120>
     678:	00068813          	mv	a6,a3
     67c:	00060493          	mv	s1,a2
     680:	e85ff06f          	j	504 <__addsf3+0x2a0>
     684:	e6079ae3          	bnez	a5,4f8 <__addsf3+0x294>
     688:	00000313          	li	t1,0
     68c:	00000793          	li	a5,0
     690:	cf5ff06f          	j	384 <__addsf3+0x120>
     694:	00068793          	mv	a5,a3
     698:	cedff06f          	j	384 <__addsf3+0x120>
     69c:	00ae07b3          	add	a5,t3,a0
     6a0:	00060493          	mv	s1,a2
     6a4:	d85ff06f          	j	428 <__addsf3+0x1c4>

000006a8 <__divsf3>:
     6a8:	fc010113          	addi	sp,sp,-64
     6ac:	01755793          	srli	a5,a0,0x17
     6b0:	02912a23          	sw	s1,52(sp)
     6b4:	03512223          	sw	s5,36(sp)
     6b8:	01712e23          	sw	s7,28(sp)
     6bc:	00951693          	slli	a3,a0,0x9
     6c0:	01f55493          	srli	s1,a0,0x1f
     6c4:	02112e23          	sw	ra,60(sp)
     6c8:	02812c23          	sw	s0,56(sp)
     6cc:	03212823          	sw	s2,48(sp)
     6d0:	03312623          	sw	s3,44(sp)
     6d4:	03412423          	sw	s4,40(sp)
     6d8:	03612023          	sw	s6,32(sp)
     6dc:	0ff7f793          	zext.b	a5,a5
     6e0:	0096da93          	srli	s5,a3,0x9
     6e4:	00048b93          	mv	s7,s1
     6e8:	12078a63          	beqz	a5,81c <__divsf3+0x174>
     6ec:	0ff00613          	li	a2,255
     6f0:	14c78063          	beq	a5,a2,830 <__divsf3+0x188>
     6f4:	003a9693          	slli	a3,s5,0x3
     6f8:	04000637          	lui	a2,0x4000
     6fc:	00c6eab3          	or	s5,a3,a2
     700:	f8178a13          	addi	s4,a5,-127 # 3ffff81 <_thread_mem_size+0x3fdff81>
     704:	00000413          	li	s0,0
     708:	00000b13          	li	s6,0
     70c:	0175d793          	srli	a5,a1,0x17
     710:	00959993          	slli	s3,a1,0x9
     714:	0ff7f793          	zext.b	a5,a5
     718:	0099d993          	srli	s3,s3,0x9
     71c:	01f5d913          	srli	s2,a1,0x1f
     720:	0c078a63          	beqz	a5,7f4 <__divsf3+0x14c>
     724:	0ff00713          	li	a4,255
     728:	02e78e63          	beq	a5,a4,764 <__divsf3+0xbc>
     72c:	04000737          	lui	a4,0x4000
     730:	00399993          	slli	s3,s3,0x3
     734:	f8178793          	addi	a5,a5,-127
     738:	00e9e9b3          	or	s3,s3,a4
     73c:	40fa0a33          	sub	s4,s4,a5
     740:	00000713          	li	a4,0
     744:	00e46433          	or	s0,s0,a4
     748:	000017b7          	lui	a5,0x1
     74c:	5f078793          	addi	a5,a5,1520 # 15f0 <get_switches+0x8>
     750:	00241413          	slli	s0,s0,0x2
     754:	00f40433          	add	s0,s0,a5
     758:	00042783          	lw	a5,0(s0)
     75c:	0124c4b3          	xor	s1,s1,s2
     760:	00078067          	jr	a5
     764:	f01a0a13          	addi	s4,s4,-255
     768:	12099c63          	bnez	s3,8a0 <__divsf3+0x1f8>
     76c:	00200713          	li	a4,2
     770:	08c0006f          	j	7fc <__divsf3+0x154>
     774:	00098a93          	mv	s5,s3
     778:	00090b93          	mv	s7,s2
     77c:	00070b13          	mv	s6,a4
     780:	00100793          	li	a5,1
     784:	18fb0263          	beq	s6,a5,908 <__divsf3+0x260>
     788:	120b0663          	beqz	s6,8b4 <__divsf3+0x20c>
     78c:	00200793          	li	a5,2
     790:	04fb0a63          	beq	s6,a5,7e4 <__divsf3+0x13c>
     794:	00300793          	li	a5,3
     798:	10fb1e63          	bne	s6,a5,8b4 <__divsf3+0x20c>
     79c:	00000493          	li	s1,0
     7a0:	0ff00793          	li	a5,255
     7a4:	004006b7          	lui	a3,0x400
     7a8:	03c12083          	lw	ra,60(sp)
     7ac:	03812403          	lw	s0,56(sp)
     7b0:	01779513          	slli	a0,a5,0x17
     7b4:	01f49493          	slli	s1,s1,0x1f
     7b8:	00d56533          	or	a0,a0,a3
     7bc:	03012903          	lw	s2,48(sp)
     7c0:	02c12983          	lw	s3,44(sp)
     7c4:	02812a03          	lw	s4,40(sp)
     7c8:	02412a83          	lw	s5,36(sp)
     7cc:	02012b03          	lw	s6,32(sp)
     7d0:	01c12b83          	lw	s7,28(sp)
     7d4:	00956533          	or	a0,a0,s1
     7d8:	03412483          	lw	s1,52(sp)
     7dc:	04010113          	addi	sp,sp,64
     7e0:	00008067          	ret
     7e4:	000b8493          	mv	s1,s7
     7e8:	0ff00793          	li	a5,255
     7ec:	00000693          	li	a3,0
     7f0:	fb9ff06f          	j	7a8 <__divsf3+0x100>
     7f4:	08099663          	bnez	s3,880 <__divsf3+0x1d8>
     7f8:	00100713          	li	a4,1
     7fc:	00e46433          	or	s0,s0,a4
     800:	000017b7          	lui	a5,0x1
     804:	63078793          	addi	a5,a5,1584 # 1630 <get_switches+0x48>
     808:	00241413          	slli	s0,s0,0x2
     80c:	00f40433          	add	s0,s0,a5
     810:	00042783          	lw	a5,0(s0)
     814:	0124c4b3          	xor	s1,s1,s2
     818:	00078067          	jr	a5
     81c:	020a9c63          	bnez	s5,854 <__divsf3+0x1ac>
     820:	00400413          	li	s0,4
     824:	00000a13          	li	s4,0
     828:	00100b13          	li	s6,1
     82c:	ee1ff06f          	j	70c <__divsf3+0x64>
     830:	000a9a63          	bnez	s5,844 <__divsf3+0x19c>
     834:	00800413          	li	s0,8
     838:	0ff00a13          	li	s4,255
     83c:	00200b13          	li	s6,2
     840:	ecdff06f          	j	70c <__divsf3+0x64>
     844:	00c00413          	li	s0,12
     848:	0ff00a13          	li	s4,255
     84c:	00300b13          	li	s6,3
     850:	ebdff06f          	j	70c <__divsf3+0x64>
     854:	000a8513          	mv	a0,s5
     858:	00b12623          	sw	a1,12(sp)
     85c:	9c9ff0ef          	jal	ra,224 <__clzsi2>
     860:	ffb50793          	addi	a5,a0,-5
     864:	00fa9ab3          	sll	s5,s5,a5
     868:	f8a00793          	li	a5,-118
     86c:	00c12583          	lw	a1,12(sp)
     870:	40a78a33          	sub	s4,a5,a0
     874:	00000413          	li	s0,0
     878:	00000b13          	li	s6,0
     87c:	e91ff06f          	j	70c <__divsf3+0x64>
     880:	00098513          	mv	a0,s3
     884:	9a1ff0ef          	jal	ra,224 <__clzsi2>
     888:	ffb50713          	addi	a4,a0,-5
     88c:	00aa07b3          	add	a5,s4,a0
     890:	00e999b3          	sll	s3,s3,a4
     894:	07678a13          	addi	s4,a5,118
     898:	00000713          	li	a4,0
     89c:	ea9ff06f          	j	744 <__divsf3+0x9c>
     8a0:	00300713          	li	a4,3
     8a4:	ea1ff06f          	j	744 <__divsf3+0x9c>
     8a8:	00000793          	li	a5,0
     8ac:	00000693          	li	a3,0
     8b0:	ef9ff06f          	j	7a8 <__divsf3+0x100>
     8b4:	000b8493          	mv	s1,s7
     8b8:	07fa0713          	addi	a4,s4,127
     8bc:	06e05663          	blez	a4,928 <__divsf3+0x280>
     8c0:	007af793          	andi	a5,s5,7
     8c4:	00078a63          	beqz	a5,8d8 <__divsf3+0x230>
     8c8:	00faf793          	andi	a5,s5,15
     8cc:	00400693          	li	a3,4
     8d0:	00d78463          	beq	a5,a3,8d8 <__divsf3+0x230>
     8d4:	004a8a93          	addi	s5,s5,4
     8d8:	004a9793          	slli	a5,s5,0x4
     8dc:	0007da63          	bgez	a5,8f0 <__divsf3+0x248>
     8e0:	f80007b7          	lui	a5,0xf8000
     8e4:	fff78793          	addi	a5,a5,-1 # f7ffffff <_stack_start+0xb7fdffff>
     8e8:	00fafab3          	and	s5,s5,a5
     8ec:	080a0713          	addi	a4,s4,128
     8f0:	0fe00793          	li	a5,254
     8f4:	eee7cae3          	blt	a5,a4,7e8 <__divsf3+0x140>
     8f8:	006a9693          	slli	a3,s5,0x6
     8fc:	0096d693          	srli	a3,a3,0x9
     900:	0ff77793          	zext.b	a5,a4
     904:	ea5ff06f          	j	7a8 <__divsf3+0x100>
     908:	000b8493          	mv	s1,s7
     90c:	00000793          	li	a5,0
     910:	00000693          	li	a3,0
     914:	e95ff06f          	j	7a8 <__divsf3+0x100>
     918:	00090b93          	mv	s7,s2
     91c:	00070b13          	mv	s6,a4
     920:	00000a93          	li	s5,0
     924:	e5dff06f          	j	780 <__divsf3+0xd8>
     928:	00100613          	li	a2,1
     92c:	40e60633          	sub	a2,a2,a4
     930:	00070a63          	beqz	a4,944 <__divsf3+0x29c>
     934:	01b00713          	li	a4,27
     938:	00000793          	li	a5,0
     93c:	00000693          	li	a3,0
     940:	e6c744e3          	blt	a4,a2,7a8 <__divsf3+0x100>
     944:	09ea0793          	addi	a5,s4,158
     948:	00fa97b3          	sll	a5,s5,a5
     94c:	00cad6b3          	srl	a3,s5,a2
     950:	00f03ab3          	snez	s5,a5
     954:	0156e6b3          	or	a3,a3,s5
     958:	0076f793          	andi	a5,a3,7
     95c:	00078a63          	beqz	a5,970 <__divsf3+0x2c8>
     960:	00f6f793          	andi	a5,a3,15
     964:	00400713          	li	a4,4
     968:	00e78463          	beq	a5,a4,970 <__divsf3+0x2c8>
     96c:	00468693          	addi	a3,a3,4 # 400004 <_thread_mem_size+0x3e0004>
     970:	00569793          	slli	a5,a3,0x5
     974:	0c07da63          	bgez	a5,a48 <__divsf3+0x3a0>
     978:	00100793          	li	a5,1
     97c:	00000693          	li	a3,0
     980:	e29ff06f          	j	7a8 <__divsf3+0x100>
     984:	00010737          	lui	a4,0x10
     988:	00599513          	slli	a0,s3,0x5
     98c:	fff70713          	addi	a4,a4,-1 # ffff <_etext+0xe92f>
     990:	01055793          	srli	a5,a0,0x10
     994:	00e57733          	and	a4,a0,a4
     998:	093af463          	bgeu	s5,s3,a20 <__divsf3+0x378>
     99c:	02fad5b3          	divu	a1,s5,a5
     9a0:	fffa0a13          	addi	s4,s4,-1
     9a4:	000a8613          	mv	a2,s5
     9a8:	00000693          	li	a3,0
     9ac:	02b70833          	mul	a6,a4,a1
     9b0:	02f67633          	remu	a2,a2,a5
     9b4:	01061613          	slli	a2,a2,0x10
     9b8:	00d666b3          	or	a3,a2,a3
     9bc:	0106fe63          	bgeu	a3,a6,9d8 <__divsf3+0x330>
     9c0:	00a686b3          	add	a3,a3,a0
     9c4:	fff58613          	addi	a2,a1,-1
     9c8:	06a6ec63          	bltu	a3,a0,a40 <__divsf3+0x398>
     9cc:	0706fa63          	bgeu	a3,a6,a40 <__divsf3+0x398>
     9d0:	ffe58593          	addi	a1,a1,-2
     9d4:	00a686b3          	add	a3,a3,a0
     9d8:	410686b3          	sub	a3,a3,a6
     9dc:	02f6dab3          	divu	s5,a3,a5
     9e0:	02f6f6b3          	remu	a3,a3,a5
     9e4:	02ea87b3          	mul	a5,s5,a4
     9e8:	01069713          	slli	a4,a3,0x10
     9ec:	00f77e63          	bgeu	a4,a5,a08 <__divsf3+0x360>
     9f0:	00a70733          	add	a4,a4,a0
     9f4:	fffa8693          	addi	a3,s5,-1
     9f8:	04a76063          	bltu	a4,a0,a38 <__divsf3+0x390>
     9fc:	02f77e63          	bgeu	a4,a5,a38 <__divsf3+0x390>
     a00:	ffea8a93          	addi	s5,s5,-2
     a04:	00a70733          	add	a4,a4,a0
     a08:	01059693          	slli	a3,a1,0x10
     a0c:	40f70733          	sub	a4,a4,a5
     a10:	0156e6b3          	or	a3,a3,s5
     a14:	00e03733          	snez	a4,a4
     a18:	00e6eab3          	or	s5,a3,a4
     a1c:	e9dff06f          	j	8b8 <__divsf3+0x210>
     a20:	001ad613          	srli	a2,s5,0x1
     a24:	02f655b3          	divu	a1,a2,a5
     a28:	01fa9693          	slli	a3,s5,0x1f
     a2c:	0106d693          	srli	a3,a3,0x10
     a30:	02b70833          	mul	a6,a4,a1
     a34:	f7dff06f          	j	9b0 <__divsf3+0x308>
     a38:	00068a93          	mv	s5,a3
     a3c:	fcdff06f          	j	a08 <__divsf3+0x360>
     a40:	00060593          	mv	a1,a2
     a44:	f95ff06f          	j	9d8 <__divsf3+0x330>
     a48:	00669693          	slli	a3,a3,0x6
     a4c:	0096d693          	srli	a3,a3,0x9
     a50:	00000793          	li	a5,0
     a54:	d55ff06f          	j	7a8 <__divsf3+0x100>

00000a58 <__floatsisf>:
     a58:	ff010113          	addi	sp,sp,-16
     a5c:	00112623          	sw	ra,12(sp)
     a60:	00812423          	sw	s0,8(sp)
     a64:	00912223          	sw	s1,4(sp)
     a68:	04050a63          	beqz	a0,abc <__floatsisf+0x64>
     a6c:	41f55713          	srai	a4,a0,0x1f
     a70:	00a744b3          	xor	s1,a4,a0
     a74:	40e484b3          	sub	s1,s1,a4
     a78:	00050793          	mv	a5,a0
     a7c:	00048513          	mv	a0,s1
     a80:	01f7d413          	srli	s0,a5,0x1f
     a84:	fa0ff0ef          	jal	ra,224 <__clzsi2>
     a88:	09e00793          	li	a5,158
     a8c:	40a787b3          	sub	a5,a5,a0
     a90:	09600713          	li	a4,150
     a94:	00050693          	mv	a3,a0
     a98:	04f74a63          	blt	a4,a5,aec <__floatsisf+0x94>
     a9c:	00800713          	li	a4,8
     aa0:	0ff7f513          	zext.b	a0,a5
     aa4:	00d75663          	bge	a4,a3,ab0 <__floatsisf+0x58>
     aa8:	ff868693          	addi	a3,a3,-8
     aac:	00d494b3          	sll	s1,s1,a3
     ab0:	00949493          	slli	s1,s1,0x9
     ab4:	0094d493          	srli	s1,s1,0x9
     ab8:	0100006f          	j	ac8 <__floatsisf+0x70>
     abc:	00000413          	li	s0,0
     ac0:	00000513          	li	a0,0
     ac4:	00000493          	li	s1,0
     ac8:	00c12083          	lw	ra,12(sp)
     acc:	01f41793          	slli	a5,s0,0x1f
     ad0:	00812403          	lw	s0,8(sp)
     ad4:	01751513          	slli	a0,a0,0x17
     ad8:	00956533          	or	a0,a0,s1
     adc:	00f56533          	or	a0,a0,a5
     ae0:	00412483          	lw	s1,4(sp)
     ae4:	01010113          	addi	sp,sp,16
     ae8:	00008067          	ret
     aec:	09900713          	li	a4,153
     af0:	02f75063          	bge	a4,a5,b10 <__floatsisf+0xb8>
     af4:	01b50513          	addi	a0,a0,27
     af8:	00500713          	li	a4,5
     afc:	00a49533          	sll	a0,s1,a0
     b00:	40d70733          	sub	a4,a4,a3
     b04:	00e4d4b3          	srl	s1,s1,a4
     b08:	00a03533          	snez	a0,a0
     b0c:	00a4e4b3          	or	s1,s1,a0
     b10:	00500713          	li	a4,5
     b14:	00d75663          	bge	a4,a3,b20 <__floatsisf+0xc8>
     b18:	ffb68713          	addi	a4,a3,-5
     b1c:	00e494b3          	sll	s1,s1,a4
     b20:	fc000637          	lui	a2,0xfc000
     b24:	fff60613          	addi	a2,a2,-1 # fbffffff <_stack_start+0xbbfdffff>
     b28:	0074f593          	andi	a1,s1,7
     b2c:	00c4f733          	and	a4,s1,a2
     b30:	02058463          	beqz	a1,b58 <__floatsisf+0x100>
     b34:	00f4f493          	andi	s1,s1,15
     b38:	00400593          	li	a1,4
     b3c:	00b48e63          	beq	s1,a1,b58 <__floatsisf+0x100>
     b40:	00470713          	addi	a4,a4,4
     b44:	00571593          	slli	a1,a4,0x5
     b48:	0005d863          	bgez	a1,b58 <__floatsisf+0x100>
     b4c:	09f00793          	li	a5,159
     b50:	00c77733          	and	a4,a4,a2
     b54:	40d787b3          	sub	a5,a5,a3
     b58:	00671493          	slli	s1,a4,0x6
     b5c:	0094d493          	srli	s1,s1,0x9
     b60:	0ff7f513          	zext.b	a0,a5
     b64:	f65ff06f          	j	ac8 <__floatsisf+0x70>

00000b68 <__floatunsisf>:
     b68:	ff010113          	addi	sp,sp,-16
     b6c:	00112623          	sw	ra,12(sp)
     b70:	00812423          	sw	s0,8(sp)
     b74:	04050863          	beqz	a0,bc4 <__floatunsisf+0x5c>
     b78:	00050413          	mv	s0,a0
     b7c:	ea8ff0ef          	jal	ra,224 <__clzsi2>
     b80:	09e00793          	li	a5,158
     b84:	40a787b3          	sub	a5,a5,a0
     b88:	09600713          	li	a4,150
     b8c:	04f74c63          	blt	a4,a5,be4 <__floatunsisf+0x7c>
     b90:	00800713          	li	a4,8
     b94:	0ff7f793          	zext.b	a5,a5
     b98:	00a75663          	bge	a4,a0,ba4 <__floatunsisf+0x3c>
     b9c:	ff850513          	addi	a0,a0,-8
     ba0:	00a41433          	sll	s0,s0,a0
     ba4:	00941413          	slli	s0,s0,0x9
     ba8:	00945413          	srli	s0,s0,0x9
     bac:	01779513          	slli	a0,a5,0x17
     bb0:	00c12083          	lw	ra,12(sp)
     bb4:	00856533          	or	a0,a0,s0
     bb8:	00812403          	lw	s0,8(sp)
     bbc:	01010113          	addi	sp,sp,16
     bc0:	00008067          	ret
     bc4:	00000793          	li	a5,0
     bc8:	00000413          	li	s0,0
     bcc:	01779513          	slli	a0,a5,0x17
     bd0:	00c12083          	lw	ra,12(sp)
     bd4:	00856533          	or	a0,a0,s0
     bd8:	00812403          	lw	s0,8(sp)
     bdc:	01010113          	addi	sp,sp,16
     be0:	00008067          	ret
     be4:	09900713          	li	a4,153
     be8:	02f75063          	bge	a4,a5,c08 <__floatunsisf+0xa0>
     bec:	01b50713          	addi	a4,a0,27
     bf0:	00500693          	li	a3,5
     bf4:	00e41733          	sll	a4,s0,a4
     bf8:	40a686b3          	sub	a3,a3,a0
     bfc:	00e03733          	snez	a4,a4
     c00:	00d45433          	srl	s0,s0,a3
     c04:	00876433          	or	s0,a4,s0
     c08:	00500713          	li	a4,5
     c0c:	00a75663          	bge	a4,a0,c18 <__floatunsisf+0xb0>
     c10:	ffb50713          	addi	a4,a0,-5
     c14:	00e41433          	sll	s0,s0,a4
     c18:	fc0006b7          	lui	a3,0xfc000
     c1c:	fff68693          	addi	a3,a3,-1 # fbffffff <_stack_start+0xbbfdffff>
     c20:	00747613          	andi	a2,s0,7
     c24:	00d47733          	and	a4,s0,a3
     c28:	02060463          	beqz	a2,c50 <__floatunsisf+0xe8>
     c2c:	00f47413          	andi	s0,s0,15
     c30:	00400613          	li	a2,4
     c34:	00c40e63          	beq	s0,a2,c50 <__floatunsisf+0xe8>
     c38:	00470713          	addi	a4,a4,4
     c3c:	00571613          	slli	a2,a4,0x5
     c40:	00065863          	bgez	a2,c50 <__floatunsisf+0xe8>
     c44:	09f00793          	li	a5,159
     c48:	00d77733          	and	a4,a4,a3
     c4c:	40a787b3          	sub	a5,a5,a0
     c50:	00671413          	slli	s0,a4,0x6
     c54:	0ff7f793          	zext.b	a5,a5
     c58:	00945413          	srli	s0,s0,0x9
     c5c:	01779513          	slli	a0,a5,0x17
     c60:	00c12083          	lw	ra,12(sp)
     c64:	00856533          	or	a0,a0,s0
     c68:	00812403          	lw	s0,8(sp)
     c6c:	01010113          	addi	sp,sp,16
     c70:	00008067          	ret

00000c74 <__gesf2>:
     c74:	01755693          	srli	a3,a0,0x17
     c78:	00800737          	lui	a4,0x800
     c7c:	fff70713          	addi	a4,a4,-1 # 7fffff <_thread_mem_size+0x7dffff>
     c80:	0175d613          	srli	a2,a1,0x17
     c84:	0ff6f693          	zext.b	a3,a3
     c88:	0ff00813          	li	a6,255
     c8c:	00a778b3          	and	a7,a4,a0
     c90:	01f55793          	srli	a5,a0,0x1f
     c94:	00b77733          	and	a4,a4,a1
     c98:	0ff67613          	zext.b	a2,a2
     c9c:	01f5d513          	srli	a0,a1,0x1f
     ca0:	03068263          	beq	a3,a6,cc4 <__gesf2+0x50>
     ca4:	03060463          	beq	a2,a6,ccc <__gesf2+0x58>
     ca8:	04069863          	bnez	a3,cf8 <__gesf2+0x84>
     cac:	0018b593          	seqz	a1,a7
     cb0:	02061e63          	bnez	a2,cec <__gesf2+0x78>
     cb4:	02071c63          	bnez	a4,cec <__gesf2+0x78>
     cb8:	00000513          	li	a0,0
     cbc:	00089e63          	bnez	a7,cd8 <__gesf2+0x64>
     cc0:	00008067          	ret
     cc4:	06089263          	bnez	a7,d28 <__gesf2+0xb4>
     cc8:	02d61863          	bne	a2,a3,cf8 <__gesf2+0x84>
     ccc:	04071e63          	bnez	a4,d28 <__gesf2+0xb4>
     cd0:	00068c63          	beqz	a3,ce8 <__gesf2+0x74>
     cd4:	02a78863          	beq	a5,a0,d04 <__gesf2+0x90>
     cd8:	00100513          	li	a0,1
     cdc:	fe0782e3          	beqz	a5,cc0 <__gesf2+0x4c>
     ce0:	fff00513          	li	a0,-1
     ce4:	00008067          	ret
     ce8:	0018b593          	seqz	a1,a7
     cec:	fe0584e3          	beqz	a1,cd4 <__gesf2+0x60>
     cf0:	fe0508e3          	beqz	a0,ce0 <__gesf2+0x6c>
     cf4:	00008067          	ret
     cf8:	fc061ee3          	bnez	a2,cd4 <__gesf2+0x60>
     cfc:	fc071ce3          	bnez	a4,cd4 <__gesf2+0x60>
     d00:	fd9ff06f          	j	cd8 <__gesf2+0x64>
     d04:	00d64c63          	blt	a2,a3,d1c <__gesf2+0xa8>
     d08:	fec6c4e3          	blt	a3,a2,cf0 <__gesf2+0x7c>
     d0c:	01176863          	bltu	a4,a7,d1c <__gesf2+0xa8>
     d10:	fee8e0e3          	bltu	a7,a4,cf0 <__gesf2+0x7c>
     d14:	00000513          	li	a0,0
     d18:	00008067          	ret
     d1c:	fc0512e3          	bnez	a0,ce0 <__gesf2+0x6c>
     d20:	00100513          	li	a0,1
     d24:	00008067          	ret
     d28:	ffe00513          	li	a0,-2
     d2c:	00008067          	ret

00000d30 <__lesf2>:
     d30:	01755693          	srli	a3,a0,0x17
     d34:	00800737          	lui	a4,0x800
     d38:	fff70713          	addi	a4,a4,-1 # 7fffff <_thread_mem_size+0x7dffff>
     d3c:	0175d613          	srli	a2,a1,0x17
     d40:	0ff6f693          	zext.b	a3,a3
     d44:	0ff00813          	li	a6,255
     d48:	00a778b3          	and	a7,a4,a0
     d4c:	01f55793          	srli	a5,a0,0x1f
     d50:	00b77733          	and	a4,a4,a1
     d54:	0ff67613          	zext.b	a2,a2
     d58:	01f5d513          	srli	a0,a1,0x1f
     d5c:	03068263          	beq	a3,a6,d80 <__lesf2+0x50>
     d60:	03060463          	beq	a2,a6,d88 <__lesf2+0x58>
     d64:	04069c63          	bnez	a3,dbc <__lesf2+0x8c>
     d68:	0018b593          	seqz	a1,a7
     d6c:	02061463          	bnez	a2,d94 <__lesf2+0x64>
     d70:	02071263          	bnez	a4,d94 <__lesf2+0x64>
     d74:	00000513          	li	a0,0
     d78:	02089263          	bnez	a7,d9c <__lesf2+0x6c>
     d7c:	00008067          	ret
     d80:	02089663          	bnez	a7,dac <__lesf2+0x7c>
     d84:	02d61c63          	bne	a2,a3,dbc <__lesf2+0x8c>
     d88:	02071263          	bnez	a4,dac <__lesf2+0x7c>
     d8c:	00069663          	bnez	a3,d98 <__lesf2+0x68>
     d90:	0018b593          	seqz	a1,a7
     d94:	02059063          	bnez	a1,db4 <__lesf2+0x84>
     d98:	02a78863          	beq	a5,a0,dc8 <__lesf2+0x98>
     d9c:	00100513          	li	a0,1
     da0:	fc078ee3          	beqz	a5,d7c <__lesf2+0x4c>
     da4:	fff00513          	li	a0,-1
     da8:	00008067          	ret
     dac:	00200513          	li	a0,2
     db0:	00008067          	ret
     db4:	fe0508e3          	beqz	a0,da4 <__lesf2+0x74>
     db8:	00008067          	ret
     dbc:	fc061ee3          	bnez	a2,d98 <__lesf2+0x68>
     dc0:	fc071ce3          	bnez	a4,d98 <__lesf2+0x68>
     dc4:	fd9ff06f          	j	d9c <__lesf2+0x6c>
     dc8:	00d64c63          	blt	a2,a3,de0 <__lesf2+0xb0>
     dcc:	fec6c4e3          	blt	a3,a2,db4 <__lesf2+0x84>
     dd0:	01176863          	bltu	a4,a7,de0 <__lesf2+0xb0>
     dd4:	fee8e0e3          	bltu	a7,a4,db4 <__lesf2+0x84>
     dd8:	00000513          	li	a0,0
     ddc:	00008067          	ret
     de0:	fc0512e3          	bnez	a0,da4 <__lesf2+0x74>
     de4:	00100513          	li	a0,1
     de8:	00008067          	ret

00000dec <__mulsf3>:
     dec:	fd010113          	addi	sp,sp,-48
     df0:	02912223          	sw	s1,36(sp)
     df4:	01755493          	srli	s1,a0,0x17
     df8:	02812423          	sw	s0,40(sp)
     dfc:	01512a23          	sw	s5,20(sp)
     e00:	00951413          	slli	s0,a0,0x9
     e04:	02112623          	sw	ra,44(sp)
     e08:	03212023          	sw	s2,32(sp)
     e0c:	01312e23          	sw	s3,28(sp)
     e10:	01412c23          	sw	s4,24(sp)
     e14:	01612823          	sw	s6,16(sp)
     e18:	0ff4f493          	zext.b	s1,s1
     e1c:	00945413          	srli	s0,s0,0x9
     e20:	01f55a93          	srli	s5,a0,0x1f
     e24:	10048a63          	beqz	s1,f38 <__mulsf3+0x14c>
     e28:	0ff00793          	li	a5,255
     e2c:	14f48263          	beq	s1,a5,f70 <__mulsf3+0x184>
     e30:	00341413          	slli	s0,s0,0x3
     e34:	040007b7          	lui	a5,0x4000
     e38:	00f46433          	or	s0,s0,a5
     e3c:	f8148493          	addi	s1,s1,-127
     e40:	00000993          	li	s3,0
     e44:	00000b13          	li	s6,0
     e48:	0175d793          	srli	a5,a1,0x17
     e4c:	00959a13          	slli	s4,a1,0x9
     e50:	0ff7f793          	zext.b	a5,a5
     e54:	009a5a13          	srli	s4,s4,0x9
     e58:	01f5d913          	srli	s2,a1,0x1f
     e5c:	10078263          	beqz	a5,f60 <__mulsf3+0x174>
     e60:	0ff00713          	li	a4,255
     e64:	04e78463          	beq	a5,a4,eac <__mulsf3+0xc0>
     e68:	003a1a13          	slli	s4,s4,0x3
     e6c:	f8178793          	addi	a5,a5,-127 # 3ffff81 <_thread_mem_size+0x3fdff81>
     e70:	04000737          	lui	a4,0x4000
     e74:	00ea6a33          	or	s4,s4,a4
     e78:	00f484b3          	add	s1,s1,a5
     e7c:	00000593          	li	a1,0
     e80:	012ac6b3          	xor	a3,s5,s2
     e84:	00f00793          	li	a5,15
     e88:	00068713          	mv	a4,a3
     e8c:	00148613          	addi	a2,s1,1
     e90:	0f37ea63          	bltu	a5,s3,f84 <__mulsf3+0x198>
     e94:	000017b7          	lui	a5,0x1
     e98:	67078793          	addi	a5,a5,1648 # 1670 <get_switches+0x88>
     e9c:	00299993          	slli	s3,s3,0x2
     ea0:	00f989b3          	add	s3,s3,a5
     ea4:	0009a783          	lw	a5,0(s3)
     ea8:	00078067          	jr	a5
     eac:	0ff48493          	addi	s1,s1,255
     eb0:	1c0a1263          	bnez	s4,1074 <__mulsf3+0x288>
     eb4:	0029e993          	ori	s3,s3,2
     eb8:	00200593          	li	a1,2
     ebc:	fc5ff06f          	j	e80 <__mulsf3+0x94>
     ec0:	00090713          	mv	a4,s2
     ec4:	000a0413          	mv	s0,s4
     ec8:	00058b13          	mv	s6,a1
     ecc:	00200793          	li	a5,2
     ed0:	18fb0663          	beq	s6,a5,105c <__mulsf3+0x270>
     ed4:	00300793          	li	a5,3
     ed8:	04fb0863          	beq	s6,a5,f28 <__mulsf3+0x13c>
     edc:	00100793          	li	a5,1
     ee0:	00070693          	mv	a3,a4
     ee4:	12fb1463          	bne	s6,a5,100c <__mulsf3+0x220>
     ee8:	00000513          	li	a0,0
     eec:	00000713          	li	a4,0
     ef0:	01751413          	slli	s0,a0,0x17
     ef4:	00e46433          	or	s0,s0,a4
     ef8:	01f69513          	slli	a0,a3,0x1f
     efc:	02c12083          	lw	ra,44(sp)
     f00:	00a46533          	or	a0,s0,a0
     f04:	02812403          	lw	s0,40(sp)
     f08:	02412483          	lw	s1,36(sp)
     f0c:	02012903          	lw	s2,32(sp)
     f10:	01c12983          	lw	s3,28(sp)
     f14:	01812a03          	lw	s4,24(sp)
     f18:	01412a83          	lw	s5,20(sp)
     f1c:	01012b03          	lw	s6,16(sp)
     f20:	03010113          	addi	sp,sp,48
     f24:	00008067          	ret
     f28:	00000693          	li	a3,0
     f2c:	0ff00513          	li	a0,255
     f30:	00400737          	lui	a4,0x400
     f34:	fbdff06f          	j	ef0 <__mulsf3+0x104>
     f38:	16041c63          	bnez	s0,10b0 <__mulsf3+0x2c4>
     f3c:	0175d793          	srli	a5,a1,0x17
     f40:	00959a13          	slli	s4,a1,0x9
     f44:	0ff7f793          	zext.b	a5,a5
     f48:	00400993          	li	s3,4
     f4c:	00000493          	li	s1,0
     f50:	00100b13          	li	s6,1
     f54:	009a5a13          	srli	s4,s4,0x9
     f58:	01f5d913          	srli	s2,a1,0x1f
     f5c:	f00792e3          	bnez	a5,e60 <__mulsf3+0x74>
     f60:	120a1063          	bnez	s4,1080 <__mulsf3+0x294>
     f64:	0019e993          	ori	s3,s3,1
     f68:	00100593          	li	a1,1
     f6c:	f15ff06f          	j	e80 <__mulsf3+0x94>
     f70:	12041863          	bnez	s0,10a0 <__mulsf3+0x2b4>
     f74:	00800993          	li	s3,8
     f78:	0ff00493          	li	s1,255
     f7c:	00200b13          	li	s6,2
     f80:	ec9ff06f          	j	e48 <__mulsf3+0x5c>
     f84:	000108b7          	lui	a7,0x10
     f88:	fff88713          	addi	a4,a7,-1 # ffff <_etext+0xe92f>
     f8c:	01045593          	srli	a1,s0,0x10
     f90:	010a5813          	srli	a6,s4,0x10
     f94:	00e47433          	and	s0,s0,a4
     f98:	00ea7a33          	and	s4,s4,a4
     f9c:	028a0533          	mul	a0,s4,s0
     fa0:	03458a33          	mul	s4,a1,s4
     fa4:	01055713          	srli	a4,a0,0x10
     fa8:	02880433          	mul	s0,a6,s0
     fac:	014407b3          	add	a5,s0,s4
     fb0:	00f707b3          	add	a5,a4,a5
     fb4:	030585b3          	mul	a1,a1,a6
     fb8:	0147f463          	bgeu	a5,s4,fc0 <__mulsf3+0x1d4>
     fbc:	011585b3          	add	a1,a1,a7
     fc0:	00010837          	lui	a6,0x10
     fc4:	fff80813          	addi	a6,a6,-1 # ffff <_etext+0xe92f>
     fc8:	0107f733          	and	a4,a5,a6
     fcc:	01071713          	slli	a4,a4,0x10
     fd0:	01057533          	and	a0,a0,a6
     fd4:	00a70733          	add	a4,a4,a0
     fd8:	00671413          	slli	s0,a4,0x6
     fdc:	0107d793          	srli	a5,a5,0x10
     fe0:	00803433          	snez	s0,s0
     fe4:	01a75713          	srli	a4,a4,0x1a
     fe8:	00b787b3          	add	a5,a5,a1
     fec:	00e46733          	or	a4,s0,a4
     ff0:	00679793          	slli	a5,a5,0x6
     ff4:	00e7e433          	or	s0,a5,a4
     ff8:	00479713          	slli	a4,a5,0x4
     ffc:	14075463          	bgez	a4,1144 <__mulsf3+0x358>
    1000:	00145793          	srli	a5,s0,0x1
    1004:	00147413          	andi	s0,s0,1
    1008:	0087e433          	or	s0,a5,s0
    100c:	07f60793          	addi	a5,a2,127
    1010:	0cf05663          	blez	a5,10dc <__mulsf3+0x2f0>
    1014:	00747713          	andi	a4,s0,7
    1018:	00070a63          	beqz	a4,102c <__mulsf3+0x240>
    101c:	00f47713          	andi	a4,s0,15
    1020:	00400593          	li	a1,4
    1024:	00b70463          	beq	a4,a1,102c <__mulsf3+0x240>
    1028:	00440413          	addi	s0,s0,4
    102c:	00441713          	slli	a4,s0,0x4
    1030:	00075a63          	bgez	a4,1044 <__mulsf3+0x258>
    1034:	f80007b7          	lui	a5,0xf8000
    1038:	fff78793          	addi	a5,a5,-1 # f7ffffff <_stack_start+0xb7fdffff>
    103c:	00f47433          	and	s0,s0,a5
    1040:	08060793          	addi	a5,a2,128
    1044:	0fe00713          	li	a4,254
    1048:	0ef74863          	blt	a4,a5,1138 <__mulsf3+0x34c>
    104c:	00641413          	slli	s0,s0,0x6
    1050:	00945713          	srli	a4,s0,0x9
    1054:	0ff7f513          	zext.b	a0,a5
    1058:	e99ff06f          	j	ef0 <__mulsf3+0x104>
    105c:	00070693          	mv	a3,a4
    1060:	0ff00513          	li	a0,255
    1064:	00000713          	li	a4,0
    1068:	e89ff06f          	j	ef0 <__mulsf3+0x104>
    106c:	000a8713          	mv	a4,s5
    1070:	e5dff06f          	j	ecc <__mulsf3+0xe0>
    1074:	0039e993          	ori	s3,s3,3
    1078:	00300593          	li	a1,3
    107c:	e05ff06f          	j	e80 <__mulsf3+0x94>
    1080:	000a0513          	mv	a0,s4
    1084:	9a0ff0ef          	jal	ra,224 <__clzsi2>
    1088:	ffb50793          	addi	a5,a0,-5
    108c:	40a484b3          	sub	s1,s1,a0
    1090:	00fa1a33          	sll	s4,s4,a5
    1094:	f8a48493          	addi	s1,s1,-118
    1098:	00000593          	li	a1,0
    109c:	de5ff06f          	j	e80 <__mulsf3+0x94>
    10a0:	00c00993          	li	s3,12
    10a4:	0ff00493          	li	s1,255
    10a8:	00300b13          	li	s6,3
    10ac:	d9dff06f          	j	e48 <__mulsf3+0x5c>
    10b0:	00040513          	mv	a0,s0
    10b4:	00b12623          	sw	a1,12(sp)
    10b8:	96cff0ef          	jal	ra,224 <__clzsi2>
    10bc:	ffb50793          	addi	a5,a0,-5
    10c0:	f8a00493          	li	s1,-118
    10c4:	00c12583          	lw	a1,12(sp)
    10c8:	00f41433          	sll	s0,s0,a5
    10cc:	40a484b3          	sub	s1,s1,a0
    10d0:	00000993          	li	s3,0
    10d4:	00000b13          	li	s6,0
    10d8:	d71ff06f          	j	e48 <__mulsf3+0x5c>
    10dc:	00100593          	li	a1,1
    10e0:	40f585b3          	sub	a1,a1,a5
    10e4:	00078a63          	beqz	a5,10f8 <__mulsf3+0x30c>
    10e8:	01b00793          	li	a5,27
    10ec:	00000513          	li	a0,0
    10f0:	00000713          	li	a4,0
    10f4:	deb7cee3          	blt	a5,a1,ef0 <__mulsf3+0x104>
    10f8:	09e60793          	addi	a5,a2,158
    10fc:	00f417b3          	sll	a5,s0,a5
    1100:	00f037b3          	snez	a5,a5
    1104:	00b45433          	srl	s0,s0,a1
    1108:	00f46433          	or	s0,s0,a5
    110c:	00747793          	andi	a5,s0,7
    1110:	00078a63          	beqz	a5,1124 <__mulsf3+0x338>
    1114:	00f47793          	andi	a5,s0,15
    1118:	00400713          	li	a4,4
    111c:	00e78463          	beq	a5,a4,1124 <__mulsf3+0x338>
    1120:	00440413          	addi	s0,s0,4
    1124:	00541793          	slli	a5,s0,0x5
    1128:	0207d263          	bgez	a5,114c <__mulsf3+0x360>
    112c:	00100513          	li	a0,1
    1130:	00000713          	li	a4,0
    1134:	dbdff06f          	j	ef0 <__mulsf3+0x104>
    1138:	0ff00513          	li	a0,255
    113c:	00000713          	li	a4,0
    1140:	db1ff06f          	j	ef0 <__mulsf3+0x104>
    1144:	00048613          	mv	a2,s1
    1148:	ec5ff06f          	j	100c <__mulsf3+0x220>
    114c:	00641413          	slli	s0,s0,0x6
    1150:	00945713          	srli	a4,s0,0x9
    1154:	00000513          	li	a0,0
    1158:	d99ff06f          	j	ef0 <__mulsf3+0x104>

0000115c <__subsf3>:
    115c:	008006b7          	lui	a3,0x800
    1160:	ff010113          	addi	sp,sp,-16
    1164:	0175d613          	srli	a2,a1,0x17
    1168:	fff68693          	addi	a3,a3,-1 # 7fffff <_thread_mem_size+0x7dffff>
    116c:	01755793          	srli	a5,a0,0x17
    1170:	00a6f733          	and	a4,a3,a0
    1174:	0ff7f793          	zext.b	a5,a5
    1178:	00b6f6b3          	and	a3,a3,a1
    117c:	0ff67893          	zext.b	a7,a2
    1180:	00912223          	sw	s1,4(sp)
    1184:	01212023          	sw	s2,0(sp)
    1188:	01f55513          	srli	a0,a0,0x1f
    118c:	00112623          	sw	ra,12(sp)
    1190:	00812423          	sw	s0,8(sp)
    1194:	0ff00813          	li	a6,255
    1198:	00070613          	mv	a2,a4
    119c:	00078913          	mv	s2,a5
    11a0:	00050493          	mv	s1,a0
    11a4:	00371313          	slli	t1,a4,0x3
    11a8:	01f5d593          	srli	a1,a1,0x1f
    11ac:	00369e13          	slli	t3,a3,0x3
    11b0:	41178eb3          	sub	t4,a5,a7
    11b4:	15088063          	beq	a7,a6,12f4 <__subsf3+0x198>
    11b8:	0015c593          	xori	a1,a1,1
    11bc:	14b50c63          	beq	a0,a1,1314 <__subsf3+0x1b8>
    11c0:	0fd05c63          	blez	t4,12b8 <__subsf3+0x15c>
    11c4:	12089e63          	bnez	a7,1300 <__subsf3+0x1a4>
    11c8:	240e0863          	beqz	t3,1418 <__subsf3+0x2bc>
    11cc:	fffe8e93          	addi	t4,t4,-1
    11d0:	41c30733          	sub	a4,t1,t3
    11d4:	020e8a63          	beqz	t4,1208 <__subsf3+0xac>
    11d8:	0ff00713          	li	a4,255
    11dc:	10e78263          	beq	a5,a4,12e0 <__subsf3+0x184>
    11e0:	01b00793          	li	a5,27
    11e4:	00100713          	li	a4,1
    11e8:	01d7ce63          	blt	a5,t4,1204 <__subsf3+0xa8>
    11ec:	02000793          	li	a5,32
    11f0:	41d787b3          	sub	a5,a5,t4
    11f4:	00fe17b3          	sll	a5,t3,a5
    11f8:	01de5733          	srl	a4,t3,t4
    11fc:	00f037b3          	snez	a5,a5
    1200:	00f76733          	or	a4,a4,a5
    1204:	40e30733          	sub	a4,t1,a4
    1208:	00571793          	slli	a5,a4,0x5
    120c:	2007d063          	bgez	a5,140c <__subsf3+0x2b0>
    1210:	04000437          	lui	s0,0x4000
    1214:	fff40413          	addi	s0,s0,-1 # 3ffffff <_thread_mem_size+0x3fdffff>
    1218:	00877433          	and	s0,a4,s0
    121c:	00040513          	mv	a0,s0
    1220:	804ff0ef          	jal	ra,224 <__clzsi2>
    1224:	ffb50513          	addi	a0,a0,-5
    1228:	00a41733          	sll	a4,s0,a0
    122c:	27254463          	blt	a0,s2,1494 <__subsf3+0x338>
    1230:	41250533          	sub	a0,a0,s2
    1234:	00150413          	addi	s0,a0,1
    1238:	02000793          	li	a5,32
    123c:	408787b3          	sub	a5,a5,s0
    1240:	00f717b3          	sll	a5,a4,a5
    1244:	00f037b3          	snez	a5,a5
    1248:	00875733          	srl	a4,a4,s0
    124c:	00f76733          	or	a4,a4,a5
    1250:	00000913          	li	s2,0
    1254:	00777793          	andi	a5,a4,7
    1258:	00078a63          	beqz	a5,126c <__subsf3+0x110>
    125c:	00f77693          	andi	a3,a4,15
    1260:	00400793          	li	a5,4
    1264:	00f68463          	beq	a3,a5,126c <__subsf3+0x110>
    1268:	00470713          	addi	a4,a4,4 # 400004 <_thread_mem_size+0x3e0004>
    126c:	00571793          	slli	a5,a4,0x5
    1270:	1a07d263          	bgez	a5,1414 <__subsf3+0x2b8>
    1274:	00190793          	addi	a5,s2,1
    1278:	0ff00693          	li	a3,255
    127c:	0014f513          	andi	a0,s1,1
    1280:	1ad78c63          	beq	a5,a3,1438 <__subsf3+0x2dc>
    1284:	00671713          	slli	a4,a4,0x6
    1288:	00975713          	srli	a4,a4,0x9
    128c:	0ff7f793          	zext.b	a5,a5
    1290:	00c12083          	lw	ra,12(sp)
    1294:	00812403          	lw	s0,8(sp)
    1298:	01779793          	slli	a5,a5,0x17
    129c:	00e7e733          	or	a4,a5,a4
    12a0:	01f51513          	slli	a0,a0,0x1f
    12a4:	00412483          	lw	s1,4(sp)
    12a8:	00012903          	lw	s2,0(sp)
    12ac:	00a76533          	or	a0,a4,a0
    12b0:	01010113          	addi	sp,sp,16
    12b4:	00008067          	ret
    12b8:	0c0e8663          	beqz	t4,1384 <__subsf3+0x228>
    12bc:	40f88633          	sub	a2,a7,a5
    12c0:	20079463          	bnez	a5,14c8 <__subsf3+0x36c>
    12c4:	26030e63          	beqz	t1,1540 <__subsf3+0x3e4>
    12c8:	fff60613          	addi	a2,a2,-1
    12cc:	2a060063          	beqz	a2,156c <__subsf3+0x410>
    12d0:	0ff00793          	li	a5,255
    12d4:	20f89263          	bne	a7,a5,14d8 <__subsf3+0x37c>
    12d8:	00058493          	mv	s1,a1
    12dc:	00068613          	mv	a2,a3
    12e0:	14060a63          	beqz	a2,1434 <__subsf3+0x2d8>
    12e4:	00000513          	li	a0,0
    12e8:	0ff00793          	li	a5,255
    12ec:	00400737          	lui	a4,0x400
    12f0:	fa1ff06f          	j	1290 <__subsf3+0x134>
    12f4:	ec0e02e3          	beqz	t3,11b8 <__subsf3+0x5c>
    12f8:	14b50663          	beq	a0,a1,1444 <__subsf3+0x2e8>
    12fc:	fbd05ee3          	blez	t4,12b8 <__subsf3+0x15c>
    1300:	0ff00713          	li	a4,255
    1304:	fce78ee3          	beq	a5,a4,12e0 <__subsf3+0x184>
    1308:	040007b7          	lui	a5,0x4000
    130c:	00fe6e33          	or	t3,t3,a5
    1310:	ed1ff06f          	j	11e0 <__subsf3+0x84>
    1314:	13d05863          	blez	t4,1444 <__subsf3+0x2e8>
    1318:	0a088063          	beqz	a7,13b8 <__subsf3+0x25c>
    131c:	0ff00713          	li	a4,255
    1320:	fce780e3          	beq	a5,a4,12e0 <__subsf3+0x184>
    1324:	040007b7          	lui	a5,0x4000
    1328:	00fe6e33          	or	t3,t3,a5
    132c:	01b00793          	li	a5,27
    1330:	00100713          	li	a4,1
    1334:	01d7ce63          	blt	a5,t4,1350 <__subsf3+0x1f4>
    1338:	02000793          	li	a5,32
    133c:	41d787b3          	sub	a5,a5,t4
    1340:	00fe17b3          	sll	a5,t3,a5
    1344:	01de5733          	srl	a4,t3,t4
    1348:	00f037b3          	snez	a5,a5
    134c:	00f76733          	or	a4,a4,a5
    1350:	00670733          	add	a4,a4,t1
    1354:	00571793          	slli	a5,a4,0x5
    1358:	0a07da63          	bgez	a5,140c <__subsf3+0x2b0>
    135c:	00190913          	addi	s2,s2,1
    1360:	0ff00793          	li	a5,255
    1364:	0cf90a63          	beq	s2,a5,1438 <__subsf3+0x2dc>
    1368:	7e0006b7          	lui	a3,0x7e000
    136c:	00175793          	srli	a5,a4,0x1
    1370:	fff68693          	addi	a3,a3,-1 # 7dffffff <_stack_start+0x3dfdffff>
    1374:	00177713          	andi	a4,a4,1
    1378:	00d7f7b3          	and	a5,a5,a3
    137c:	00e7e733          	or	a4,a5,a4
    1380:	ed5ff06f          	j	1254 <__subsf3+0xf8>
    1384:	00178813          	addi	a6,a5,1 # 4000001 <_thread_mem_size+0x3fe0001>
    1388:	0fe87813          	andi	a6,a6,254
    138c:	10081e63          	bnez	a6,14a8 <__subsf3+0x34c>
    1390:	1c079063          	bnez	a5,1550 <__subsf3+0x3f4>
    1394:	1e030463          	beqz	t1,157c <__subsf3+0x420>
    1398:	ee0e0ce3          	beqz	t3,1290 <__subsf3+0x134>
    139c:	41c30733          	sub	a4,t1,t3
    13a0:	00571693          	slli	a3,a4,0x5
    13a4:	1e06da63          	bgez	a3,1598 <__subsf3+0x43c>
    13a8:	406e0733          	sub	a4,t3,t1
    13ac:	00000913          	li	s2,0
    13b0:	00058493          	mv	s1,a1
    13b4:	ea1ff06f          	j	1254 <__subsf3+0xf8>
    13b8:	060e0063          	beqz	t3,1418 <__subsf3+0x2bc>
    13bc:	fffe8e93          	addi	t4,t4,-1
    13c0:	01c30733          	add	a4,t1,t3
    13c4:	f80e88e3          	beqz	t4,1354 <__subsf3+0x1f8>
    13c8:	0ff00713          	li	a4,255
    13cc:	f6e790e3          	bne	a5,a4,132c <__subsf3+0x1d0>
    13d0:	f11ff06f          	j	12e0 <__subsf3+0x184>
    13d4:	00178913          	addi	s2,a5,1
    13d8:	0fe97593          	andi	a1,s2,254
    13dc:	14059263          	bnez	a1,1520 <__subsf3+0x3c4>
    13e0:	18079063          	bnez	a5,1560 <__subsf3+0x404>
    13e4:	1c030463          	beqz	t1,15ac <__subsf3+0x450>
    13e8:	ea0e04e3          	beqz	t3,1290 <__subsf3+0x134>
    13ec:	01c30733          	add	a4,t1,t3
    13f0:	00571793          	slli	a5,a4,0x5
    13f4:	00000913          	li	s2,0
    13f8:	0007da63          	bgez	a5,140c <__subsf3+0x2b0>
    13fc:	fc0007b7          	lui	a5,0xfc000
    1400:	fff78793          	addi	a5,a5,-1 # fbffffff <_stack_start+0xbbfdffff>
    1404:	00f77733          	and	a4,a4,a5
    1408:	00100913          	li	s2,1
    140c:	00777793          	andi	a5,a4,7
    1410:	e40796e3          	bnez	a5,125c <__subsf3+0x100>
    1414:	00375613          	srli	a2,a4,0x3
    1418:	0ff00793          	li	a5,255
    141c:	ecf902e3          	beq	s2,a5,12e0 <__subsf3+0x184>
    1420:	00961713          	slli	a4,a2,0x9
    1424:	00975713          	srli	a4,a4,0x9
    1428:	0ff97793          	zext.b	a5,s2
    142c:	0014f513          	andi	a0,s1,1
    1430:	e61ff06f          	j	1290 <__subsf3+0x134>
    1434:	0014f513          	andi	a0,s1,1
    1438:	0ff00793          	li	a5,255
    143c:	00000713          	li	a4,0
    1440:	e51ff06f          	j	1290 <__subsf3+0x134>
    1444:	f80e88e3          	beqz	t4,13d4 <__subsf3+0x278>
    1448:	40f88733          	sub	a4,a7,a5
    144c:	0c079063          	bnez	a5,150c <__subsf3+0x3b0>
    1450:	12030e63          	beqz	t1,158c <__subsf3+0x430>
    1454:	fff70713          	addi	a4,a4,-1 # 3fffff <_thread_mem_size+0x3dffff>
    1458:	14070e63          	beqz	a4,15b4 <__subsf3+0x458>
    145c:	0ff00793          	li	a5,255
    1460:	e6f88ee3          	beq	a7,a5,12dc <__subsf3+0x180>
    1464:	01b00693          	li	a3,27
    1468:	00100793          	li	a5,1
    146c:	00e6ce63          	blt	a3,a4,1488 <__subsf3+0x32c>
    1470:	02000793          	li	a5,32
    1474:	40e787b3          	sub	a5,a5,a4
    1478:	00f317b3          	sll	a5,t1,a5
    147c:	00e35733          	srl	a4,t1,a4
    1480:	00f037b3          	snez	a5,a5
    1484:	00f767b3          	or	a5,a4,a5
    1488:	01c78733          	add	a4,a5,t3
    148c:	00088913          	mv	s2,a7
    1490:	ec5ff06f          	j	1354 <__subsf3+0x1f8>
    1494:	fc0007b7          	lui	a5,0xfc000
    1498:	fff78793          	addi	a5,a5,-1 # fbffffff <_stack_start+0xbbfdffff>
    149c:	40a90933          	sub	s2,s2,a0
    14a0:	00f77733          	and	a4,a4,a5
    14a4:	db1ff06f          	j	1254 <__subsf3+0xf8>
    14a8:	41c30433          	sub	s0,t1,t3
    14ac:	00541793          	slli	a5,s0,0x5
    14b0:	0807c263          	bltz	a5,1534 <__subsf3+0x3d8>
    14b4:	d60414e3          	bnez	s0,121c <__subsf3+0xc0>
    14b8:	00000513          	li	a0,0
    14bc:	00000793          	li	a5,0
    14c0:	00000713          	li	a4,0
    14c4:	dcdff06f          	j	1290 <__subsf3+0x134>
    14c8:	0ff00793          	li	a5,255
    14cc:	e0f886e3          	beq	a7,a5,12d8 <__subsf3+0x17c>
    14d0:	040007b7          	lui	a5,0x4000
    14d4:	00f36333          	or	t1,t1,a5
    14d8:	01b00793          	li	a5,27
    14dc:	00100713          	li	a4,1
    14e0:	00c7ce63          	blt	a5,a2,14fc <__subsf3+0x3a0>
    14e4:	02000793          	li	a5,32
    14e8:	40c787b3          	sub	a5,a5,a2
    14ec:	00f317b3          	sll	a5,t1,a5
    14f0:	00c35733          	srl	a4,t1,a2
    14f4:	00f037b3          	snez	a5,a5
    14f8:	00f76733          	or	a4,a4,a5
    14fc:	40ee0733          	sub	a4,t3,a4
    1500:	00088913          	mv	s2,a7
    1504:	00058493          	mv	s1,a1
    1508:	d01ff06f          	j	1208 <__subsf3+0xac>
    150c:	0ff00793          	li	a5,255
    1510:	dcf886e3          	beq	a7,a5,12dc <__subsf3+0x180>
    1514:	040007b7          	lui	a5,0x4000
    1518:	00f36333          	or	t1,t1,a5
    151c:	f49ff06f          	j	1464 <__subsf3+0x308>
    1520:	0ff00793          	li	a5,255
    1524:	f0f90ae3          	beq	s2,a5,1438 <__subsf3+0x2dc>
    1528:	01c30733          	add	a4,t1,t3
    152c:	00175713          	srli	a4,a4,0x1
    1530:	eddff06f          	j	140c <__subsf3+0x2b0>
    1534:	406e0433          	sub	s0,t3,t1
    1538:	00058493          	mv	s1,a1
    153c:	ce1ff06f          	j	121c <__subsf3+0xc0>
    1540:	00068613          	mv	a2,a3
    1544:	00088913          	mv	s2,a7
    1548:	00058493          	mv	s1,a1
    154c:	ecdff06f          	j	1418 <__subsf3+0x2bc>
    1550:	00031a63          	bnez	t1,1564 <__subsf3+0x408>
    1554:	d80e08e3          	beqz	t3,12e4 <__subsf3+0x188>
    1558:	00058493          	mv	s1,a1
    155c:	d81ff06f          	j	12dc <__subsf3+0x180>
    1560:	d6030ee3          	beqz	t1,12dc <__subsf3+0x180>
    1564:	d60e0ee3          	beqz	t3,12e0 <__subsf3+0x184>
    1568:	d7dff06f          	j	12e4 <__subsf3+0x188>
    156c:	406e0733          	sub	a4,t3,t1
    1570:	00088913          	mv	s2,a7
    1574:	00058493          	mv	s1,a1
    1578:	c91ff06f          	j	1208 <__subsf3+0xac>
    157c:	020e0263          	beqz	t3,15a0 <__subsf3+0x444>
    1580:	00058513          	mv	a0,a1
    1584:	00068713          	mv	a4,a3
    1588:	d09ff06f          	j	1290 <__subsf3+0x134>
    158c:	00068613          	mv	a2,a3
    1590:	00088913          	mv	s2,a7
    1594:	e85ff06f          	j	1418 <__subsf3+0x2bc>
    1598:	00000913          	li	s2,0
    159c:	e60718e3          	bnez	a4,140c <__subsf3+0x2b0>
    15a0:	00000513          	li	a0,0
    15a4:	00000713          	li	a4,0
    15a8:	ce9ff06f          	j	1290 <__subsf3+0x134>
    15ac:	00068713          	mv	a4,a3
    15b0:	ce1ff06f          	j	1290 <__subsf3+0x134>
    15b4:	01c30733          	add	a4,t1,t3
    15b8:	00088913          	mv	s2,a7
    15bc:	d99ff06f          	j	1354 <__subsf3+0x1f8>

000015c0 <putpix>:
    15c0:	7c451073          	csrw	0x7c4,a0
    15c4:	7c559073          	csrw	0x7c5,a1
    15c8:	7c70d073          	csrwi	0x7c7,1
    15cc:	00008067          	ret

000015d0 <put_leds>:
    15d0:	7c151073          	csrw	0x7c1,a0
    15d4:	00008067          	ret

000015d8 <put_ssd>:
    15d8:	7c251073          	csrw	0x7c2,a0
    15dc:	00008067          	ret

000015e0 <get_btns>:
    15e0:	fc302573          	csrr	a0,0xfc3
    15e4:	00008067          	ret

000015e8 <get_switches>:
    15e8:	fc202573          	csrr	a0,0xfc2
    15ec:	00008067          	ret
    15f0:	0984                	.2byte	0x984
    15f2:	0000                	.2byte	0x0
    15f4:	07e8                	.2byte	0x7e8
    15f6:	0000                	.2byte	0x0
    15f8:	08a8                	.2byte	0x8a8
    15fa:	0000                	.2byte	0x0
    15fc:	0774                	.2byte	0x774
    15fe:	0000                	.2byte	0x0
    1600:	08a8                	.2byte	0x8a8
    1602:	0000                	.2byte	0x0
    1604:	079c                	.2byte	0x79c
    1606:	0000                	.2byte	0x0
    1608:	08a8                	.2byte	0x8a8
    160a:	0000                	.2byte	0x0
    160c:	0774                	.2byte	0x774
    160e:	0000                	.2byte	0x0
    1610:	07e8                	.2byte	0x7e8
    1612:	0000                	.2byte	0x0
    1614:	07e8                	.2byte	0x7e8
    1616:	0000                	.2byte	0x0
    1618:	079c                	.2byte	0x79c
    161a:	0000                	.2byte	0x0
    161c:	0774                	.2byte	0x774
    161e:	0000                	.2byte	0x0
    1620:	0780                	.2byte	0x780
    1622:	0000                	.2byte	0x0
    1624:	0780                	.2byte	0x780
    1626:	0000                	.2byte	0x0
    1628:	0780                	.2byte	0x780
    162a:	0000                	.2byte	0x0
    162c:	079c                	.2byte	0x79c
    162e:	0000                	.2byte	0x0
    1630:	07e8                	.2byte	0x7e8
    1632:	0000                	.2byte	0x0
    1634:	07e8                	.2byte	0x7e8
    1636:	0000                	.2byte	0x0
    1638:	08a8                	.2byte	0x8a8
    163a:	0000                	.2byte	0x0
    163c:	0918                	.2byte	0x918
    163e:	0000                	.2byte	0x0
    1640:	08a8                	.2byte	0x8a8
    1642:	0000                	.2byte	0x0
    1644:	079c                	.2byte	0x79c
    1646:	0000                	.2byte	0x0
    1648:	08a8                	.2byte	0x8a8
    164a:	0000                	.2byte	0x0
    164c:	0918                	.2byte	0x918
    164e:	0000                	.2byte	0x0
    1650:	07e8                	.2byte	0x7e8
    1652:	0000                	.2byte	0x0
    1654:	07e8                	.2byte	0x7e8
    1656:	0000                	.2byte	0x0
    1658:	079c                	.2byte	0x79c
    165a:	0000                	.2byte	0x0
    165c:	0918                	.2byte	0x918
    165e:	0000                	.2byte	0x0
    1660:	0780                	.2byte	0x780
    1662:	0000                	.2byte	0x0
    1664:	0780                	.2byte	0x780
    1666:	0000                	.2byte	0x0
    1668:	0780                	.2byte	0x780
    166a:	0000                	.2byte	0x0
    166c:	079c                	.2byte	0x79c
    166e:	0000                	.2byte	0x0
    1670:	0f84                	.2byte	0xf84
    1672:	0000                	.2byte	0x0
    1674:	0ec4                	.2byte	0xec4
    1676:	0000                	.2byte	0x0
    1678:	0ec4                	.2byte	0xec4
    167a:	0000                	.2byte	0x0
    167c:	0ec0                	.2byte	0xec0
    167e:	0000                	.2byte	0x0
    1680:	0ecc                	.2byte	0xecc
    1682:	0000                	.2byte	0x0
    1684:	0ecc                	.2byte	0xecc
    1686:	0000                	.2byte	0x0
    1688:	0f28                	.2byte	0xf28
    168a:	0000                	.2byte	0x0
    168c:	0ec0                	.2byte	0xec0
    168e:	0000                	.2byte	0x0
    1690:	0ecc                	.2byte	0xecc
    1692:	0000                	.2byte	0x0
    1694:	0f28                	.2byte	0xf28
    1696:	0000                	.2byte	0x0
    1698:	0ecc                	.2byte	0xecc
    169a:	0000                	.2byte	0x0
    169c:	0ec0                	.2byte	0xec0
    169e:	0000                	.2byte	0x0
    16a0:	106c                	.2byte	0x106c
    16a2:	0000                	.2byte	0x0
    16a4:	106c                	.2byte	0x106c
    16a6:	0000                	.2byte	0x0
    16a8:	106c                	.2byte	0x106c
    16aa:	0000                	.2byte	0x0
    16ac:	0f28                	.2byte	0xf28
    16ae:	0000                	.2byte	0x0
    16b0:	7845                	.2byte	0x7845
    16b2:	7469                	.2byte	0x7469
    16b4:	6e69                	.2byte	0x6e69
    16b6:	68742067          	.4byte	0x68742067
    16ba:	6572                	.2byte	0x6572
    16bc:	6461                	.2byte	0x6461
    16be:	0000                	.2byte	0x0
    16c0:	6548                	.2byte	0x6548
    16c2:	6c6c                	.2byte	0x6c6c
    16c4:	77202c6f          	jal	s8,3e36 <_etext+0x2766>
    16c8:	646c726f          	jal	tp,c8d0e <_thread_mem_size+0xa8d0e>
    16cc:	0021                	.2byte	0x21
	...

Disassembly of section .bss:

40000000 <thread_args>:
	...

40000080 <initial_pc>:
	...

Disassembly of section .riscv.attributes:

00000000 <_heap_end-0x40000100>:
   0:	2441                	.2byte	0x2441
   2:	0000                	.2byte	0x0
   4:	7200                	.2byte	0x7200
   6:	7369                	.2byte	0x7369
   8:	01007663          	bgeu	zero,a6,14 <_start+0x14>
   c:	001a                	.2byte	0x1a
   e:	0000                	.2byte	0x0
  10:	1004                	.2byte	0x1004
  12:	7205                	.2byte	0x7205
  14:	3376                	.2byte	0x3376
  16:	6932                	.2byte	0x6932
  18:	7032                	.2byte	0x7032
  1a:	5f30                	.2byte	0x5f30
  1c:	326d                	.2byte	0x326d
  1e:	3070                	.2byte	0x3070
  20:	0800                	.2byte	0x800
  22:	0a01                	.2byte	0xa01
  24:	0b              	Address 0x0000000000000024 is out of bounds.


Disassembly of section .comment:

00000000 <.comment>:
   0:	3a434347          	.4byte	0x3a434347
   4:	2820                	.2byte	0x2820
   6:	65653267          	.4byte	0x65653267
   a:	6535                	.2byte	0x6535
   c:	3334                	.2byte	0x3334
   e:	3030                	.2byte	0x3030
  10:	3831                	.2byte	0x3831
  12:	2029                	.2byte	0x2029
  14:	3231                	.2byte	0x3231
  16:	322e                	.2byte	0x322e
  18:	302e                	.2byte	0x302e
  1a:	4700                	.2byte	0x4700
  1c:	203a4343          	.4byte	0x203a4343
  20:	2928                	.2byte	0x2928
  22:	3920                	.2byte	0x3920
  24:	332e                	.2byte	0x332e
  26:	302e                	.2byte	0x302e
	...
