
test_threads.out:     file format elf32-littleriscv

Contents of section .text:
 0000 13075000 93070001 13060002 93051000  ..P.............
 0010 b356f540 1307f7ff 63880600 638eb700  .V.@....c...c...
 0020 3306f640 13850600 93d71740 e31207fe  3..@.......@....
 0030 3305a640 67800000 1305e6ff 67800000  3..@g.......g...
 0040 b7068000 130101ff 13577501 9386f6ff  .........Wu.....
 0050 13d67501 33f8a600 23229100 b3f6b600  ..u.3...#"......
 0060 9374f70f 23202101 1376f60f 1359f501  .t..# !..v...Y..
 0070 23261100 23248100 93d5f501 93070800  #&..#$..........
 0080 13870400 13030900 131e3800 13953600  ..........8...6.
 0090 b388c440 6308b912 6358100f 630c0618  ...@c...cX..c...
 00a0 9307f00f 6386f410 b7070004 3365f500  ....c.......3e..
 00b0 1307b001 93071000 634e1701 13070002  ........cN......
 00c0 33071741 3317e500 b3571501 3337e000  3..A3....W..37..
 00d0 b3e7e700 b307fe40 13975700 635c071e  .......@..W.c\..
 00e0 37040004 1304f4ff 33f48700 13050400  7.......3.......
 00f0 eff01ff1 1305b5ff b317a400 63409526  ............c@.&
 0100 33079540 13041700 13070002 33078740  3..@........3..@
 0110 3397e700 3337e000 b3d78700 b3e7e700  3...37..........
 0120 93040000 13f77700 630a0700 13f7f700  ......w.c.......
 0130 93064000 6304d700 93874700 13975700  ..@.c.....G...W.
 0140 635e0718 13871400 9306f00f 13030900  c^..............
 0150 6308d71a 93976700 93d79700 1377f70f  c.....g......w..
 0160 8320c100 03248100 13157701 b367f500  . ...$....w..g..
 0170 1315f301 83244100 03290100 33e5a700  .....$A..)..3...
 0180 13010101 67800000 6384080c 33089640  ....g...c...3..@
 0190 63900420 630a0e26 1308f8ff 630c0828  c.. c..&....c..(
 01a0 9307f00f 631ef61e 13890500 13880600  ....c...........
 01b0 63060814 13030000 1307f00f b7074000  c.............@.
 01c0 6ff01ffa 63541015 630c060a 9307f00f  o...cT..c.......
 01d0 e380f4fe b7070004 3365f500 1307b001  ........3e......
 01e0 93071000 634e1701 13070002 33071741  ....cN......3..A
 01f0 3317e500 b3571501 3337e000 b3e7e700  3....W..37......
 0200 b387c701 13975700 6356070c 93841400  ......W.cV......
 0210 1307f00f 6386e40e b706007e 13d71700  ....c......~....
 0220 9386f6ff 93f71700 3377d700 b367f700  ........3w...g..
 0230 6ff05fef 6306050a 9388f8ff b307ae40  o._.c..........@
 0240 e38c08e8 9307f00f e394f4e6 6ff05ff6  ............o._.
 0250 13861400 1376e60f 631c0610 639e041a  .....v..c...c...
 0260 63020e1e e30e05ee b307ae40 93965700  c..........@..W.
 0270 63d8061e b307c541 13890500 6ff09fea  c......A....o...
 0280 63000506 9388f8ff b307ae00 e38c08f6  c...............
 0290 9307f00f e394f4f4 6ff09ff1 93841400  ........o.......
 02a0 13f6e40f 63120614 63100718 63020e1c  ....c...c...c...
 02b0 e30805ea b307ae00 13975700 93040000  ..........W.....
 02c0 635a0700 370700fc 1307f7ff b3f7e700  cZ..7...........
 02d0 93041000 13f77700 e31a07e4 13d83700  ......w.......7.
 02e0 9307f00f e386f4ec 93179800 93d79700  ................
 02f0 13f7f40f 13030900 6ff09fe6 13030900  ........o.......
 0300 1307f00f 93070000 6ff09fe5 e38808f8  ........o.......
 0310 b3079640 6390040c 630e0e12 9387f7ff  ...@c...c.......
 0320 638c0714 1307f00f e302e6e8 9306b001  c...............
 0330 13071000 63cef600 13070002 3307f740  ....c.......3..@
 0340 3317ee00 b357fe00 3337e000 33e7e700  3....W..37..3...
 0350 b307a700 93040600 6ff0dfea 370700fc  ........o...7...
 0360 1307f7ff b384a440 b3f7e700 6ff09fdb  .......@....o...
 0370 3304ae40 93175400 63c20708 e31804d6  3..@..T.c.......
 0380 13030000 13070000 93070000 6ff05fdd  ............o._.
 0390 9307f00f e30af6e0 b7070004 336efe00  ............3n..
 03a0 1307b001 93071000 634e0701 13070002  ........cN......
 03b0 33070741 3317ee00 b3570e01 3337e000  3..A3....W..37..
 03c0 b3e7e700 b307f540 93040600 13890500  .......@........
 03d0 6ff09fd0 1307f00f e30ae6dc 37070004  o...........7...
 03e0 336eee00 6ff09ff4 9307f00f e38af4f0  3n..o...........
 03f0 b307ae00 93d71700 6ff0dfed 3304c541  ........o...3..A
 0400 13890500 6ff09fce 13880600 93040600  ....o...........
 0410 13890500 6ff0dfec 631a0e00 e30c05d8  ....o...c.......
 0420 13890500 6ff09fd8 e3020ed8 e30205d8  ....o...........
 0430 6ff05fd8 b307c541 93040600 13890500  o._....A........
 0440 6ff09fc9 63000502 13830500 93870600  o...c...........
 0450 6ff01fd1 13880600 93040600 6ff05fe8  o...........o._.
 0460 e39a07e6 13030000 93070000 6ff05fcf  ............o._.
 0470 93870600 6ff0dfce b307ae00 93040600  ....o...........
 0480 6ff05fd8 130101fc 93577501 232a9102  o._......Wu.#*..
 0490 23225103 232e7101 93169500 9354f501  #"Q.#.q......T..
 04a0 232e1102 232c8102 23282103 23263103  #...#,..#(!.#&1.
 04b0 23244103 23206103 93f7f70f 93da9600  #$A.# a.........
 04c0 938b0400 638a0712 1306f00f 6380c714  ....c.......c...
 04d0 93963a00 37060004 b3eac600 138a17f8  ..:.7...........
 04e0 13040000 130b0000 93d77501 93999500  ..........u.....
 04f0 93f7f70f 93d99900 13d9f501 638a070c  ............c...
 0500 1307f00f 638ee702 37070004 93993900  ....c...7.....9.
 0510 938717f8 b3e9e900 330afa40 13070000  ........3..@....
 0520 3364e400 b7170000 9387c73c 13142400  3d.........<..$.
 0530 3304f400 83270400 b3c42401 67800700  3....'....$.g...
 0540 130a1af0 639c0912 13072000 6f00c008  ....c..... .o...
 0550 938a0900 930b0900 130b0700 93071000  ................
 0560 6302fb18 63060b12 93072000 630afb04  c...c..... .c...
 0570 93073000 631efb10 93040000 9307f00f  ..0.c...........
 0580 b7064000 8320c103 03248103 13957701  ..@.. ...$....w.
 0590 9394f401 3365d500 03290103 8329c102  ....3e...)...)..
 05a0 032a8102 832a4102 032b0102 832bc101  .*...*A..+...+..
 05b0 33659500 83244103 13010104 67800000  3e...$A.....g...
 05c0 93840b00 9307f00f 93060000 6ff09ffb  ............o...
 05d0 63960908 13071000 3364e400 b7170000  c.......3d......
 05e0 9387c740 13142400 3304f400 83270400  ...@..$.3....'..
 05f0 b3c42401 67800700 639c0a02 13044000  ..$.g...c.....@.
 0600 130a0000 130b1000 6ff01fee 639a0a00  ........o...c...
 0610 13048000 130af00f 130b2000 6ff0dfec  .......... .o...
 0620 1304c000 130af00f 130b3000 6ff0dfeb  ..........0.o...
 0630 13850a00 2326b100 eff09f9c 9307b5ff  ....#&..........
 0640 b39afa00 9307a0f8 8325c100 338aa740  .........%..3..@
 0650 13040000 130b0000 6ff01fe9 13850900  ........o.......
 0660 eff01f9a 1307b5ff b307aa00 b399e900  ................
 0670 138a6707 13070000 6ff09fea 13073000  ..g.....o.....0.
 0680 6ff01fea 93070000 93060000 6ff09fef  o...........o...
 0690 93840b00 1307fa07 6356e006 93f77a00  ........cV....z.
 06a0 638a0700 93f7fa00 93064000 6384d700  c.........@.c...
 06b0 938a4a00 93974a00 63da0700 b70700f8  ..J...J.c.......
 06c0 9387f7ff b3fafa00 13070a08 9307e00f  ................
 06d0 e3cae7ee 93966a00 93d69600 9377f70f  ......j......w..
 06e0 6ff05fea 93840b00 93070000 93060000  o._.............
 06f0 6ff05fe9 930b0900 130b0700 930a0000  o._.............
 0700 6ff0dfe5 13061000 3306e640 630a0700  o.......3..@c...
 0710 1307b001 93070000 93060000 e344c7e6  .............D..
 0720 9307ea09 b397fa00 b3d6ca00 b33af000  .............:..
 0730 b3e65601 93f77600 638a0700 93f7f600  ..V...v.c.......
 0740 13074000 6384e700 93864600 93975600  ..@.c.....F...V.
 0750 63da070c 93071000 93060000 6ff09fe2  c...........o...
 0760 37070100 13955900 1307f7ff 93570501  7.....Y......W..
 0770 3377e500 63f43a09 b3d5fa02 130afaff  3w..c.:.........
 0780 13860a00 93060000 3308b702 3376f602  ........3...3v..
 0790 13160601 b366d600 63fe0601 b386a600  .....f..c.......
 07a0 1386f5ff 63eca606 63fa0607 9385e5ff  ....c...c.......
 07b0 b386a600 b3860641 b3daf602 b3f6f602  .......A........
 07c0 b387ea02 13970601 637ef700 3307a700  ........c~..3...
 07d0 9386faff 6360a704 637ef702 938aeaff  ....c`..c~......
 07e0 3307a700 93960501 3307f740 b3e65601  3.......3..@..V.
 07f0 3337e000 b3eae600 6ff0dfe9 13d61a00  37......o.......
 0800 b355f602 9396fa01 93d60601 3308b702  .U..........3...
 0810 6ff0dff7 938a0600 6ff0dffc 93050600  o.......o.......
 0820 6ff05ff9 93966600 93d69600 93070000  o._...f.........
 0830 6ff05fd5 130101ff 23261100 23248100  o._.....#&..#$..
 0840 23229100 630a0504 1357f541 b344a700  #"..c....W.A.D..
 0850 b384e440 93070500 13850400 13d4f701  ...@............
 0860 eff00ffa 9307e009 b387a740 13076009  ...........@..`.
 0870 93060500 634af704 13078000 13f5f70f  ....cJ..........
 0880 6356d700 938686ff b394d400 93949400  cV..............
 0890 93d49400 6f000001 13040000 13050000  ....o...........
 08a0 93040000 8320c100 9317f401 03248100  ..... .......$..
 08b0 13157501 33659500 3365f500 83244100  ..u.3e..3e...$A.
 08c0 13010101 67800000 13079009 6350f702  ....g.......cP..
 08d0 1305b501 13075000 3395a400 3307d740  ......P.3...3..@
 08e0 b3d4e400 3335a000 b3e4a400 13075000  ....35........P.
 08f0 6356d700 1387b6ff b394e400 370600fc  cV..........7...
 0900 1306f6ff 93f57400 33f7c400 63840502  ......t.3...c...
 0910 93f4f400 93054000 638eb400 13074700  ......@.c.....G.
 0920 93155700 63d80500 9307f009 3377c700  ..W.c.......3w..
 0930 b387d740 93146700 93d49400 13f5f70f  ...@..g.........
 0940 6ff05ff6 130101ff 23261100 23248100  o._.....#&..#$..
 0950 63080504 13040500 eff08fea 9307e009  c...............
 0960 b387a740 13076009 634cf704 13078000  ...@..`.cL......
 0970 93f7f70f 6356a700 130585ff 3314a400  ....cV......3...
 0980 13149400 13549400 13957701 8320c100  .....T....w.. ..
 0990 33658500 03248100 13010101 67800000  3e...$......g...
 09a0 93070000 13040000 13957701 8320c100  ..........w.. ..
 09b0 33658500 03248100 13010101 67800000  3e...$......g...
 09c0 13079009 6350f702 1307b501 93065000  ....cP........P.
 09d0 3317e400 b386a640 3337e000 3354d400  3......@37..3T..
 09e0 33648700 13075000 6356a700 1307b5ff  3d....P.cV......
 09f0 3314e400 b70600fc 9386f6ff 13767400  3............vt.
 0a00 3377d400 63040602 1374f400 13064000  3w..c....t....@.
 0a10 630ec400 13074700 13165700 63580600  c.....G...W.cX..
 0a20 9307f009 3377d700 b387a740 13146700  ....3w.....@..g.
 0a30 93f7f70f 13549400 13957701 8320c100  .....T....w.. ..
 0a40 33658500 03248100 13010101 67800000  3e...$......g...
 0a50 93567501 37078000 1307f7ff 13d67501  .Vu.7.........u.
 0a60 93f6f60f 1308f00f b378a700 9357f501  .........x...W..
 0a70 3377b700 1376f60f 13d5f501 63820603  3w...v......c...
 0a80 63040603 63980604 93b51800 631e0602  c...c.......c...
 0a90 631c0702 13050000 639e0800 67800000  c.......c...g...
 0aa0 63920806 6318d602 631e0704 638c0600  c...c...c...c...
 0ab0 6388a702 13051000 e38207fe 1305f0ff  c...............
 0ac0 67800000 93b51800 e38405fe e30805fe  g...............
 0ad0 67800000 e31e06fc e31c07fc 6ff09ffd  g...........o...
 0ae0 634cd600 e3c4c6fe 63681701 e3e0e8fe  cL......ch......
 0af0 13050000 67800000 e31205fc 13051000  ....g...........
 0b00 67800000 1305e0ff 67800000 93567501  g.......g....Vu.
 0b10 37078000 1307f7ff 13d67501 93f6f60f  7.........u.....
 0b20 1308f00f b378a700 9357f501 3377b700  .....x...W..3w..
 0b30 1376f60f 13d5f501 63820603 63040603  .v......c...c...
 0b40 639c0604 93b51800 63140602 63120702  c.......c...c...
 0b50 13050000 63920802 67800000 63960802  ....c...g...c...
 0b60 631cd602 63120702 63960600 93b51800  c...c...c.......
 0b70 63900502 6388a702 13051000 e38e07fc  c...c...........
 0b80 1305f0ff 67800000 13052000 67800000  ....g..... .g...
 0b90 e30805fe 67800000 e31e06fc e31c07fc  ....g...........
 0ba0 6ff09ffd 634cd600 e3c4c6fe 63681701  o...cL......ch..
 0bb0 e3e0e8fe 13050000 67800000 e31205fc  ........g.......
 0bc0 13051000 67800000 130101fd 23229102  ....g.......#"..
 0bd0 93547501 23248102 232a5101 13149500  .Tu.#$..#*Q.....
 0be0 23261102 23202103 232e3101 232c4101  #&..# !.#.1.#,A.
 0bf0 23286101 93f4f40f 13549400 935af501  #(a......T...Z..
 0c00 638a0410 9307f00f 6382f414 13143400  c.......c.....4.
 0c10 b7070004 3364f400 938414f8 93090000  ....3d..........
 0c20 130b0000 93d77501 139a9500 93f7f70f  ......u.........
 0c30 135a9a00 13d9f501 63820710 1307f00f  .Z......c.......
 0c40 6384e704 131a3a00 938717f8 37070004  c.....:.....7...
 0c50 336aea00 b384f400 93050000 b3c62a01  3j............*.
 0c60 9307f000 13870600 13861400 63ea370f  ............c.7.
 0c70 b7170000 9387c744 93992900 b389f900  .......D..).....
 0c80 83a70900 67800700 9384f40f 63120a1c  ....g.......c...
 0c90 93e92900 93052000 6ff05ffc 13070900  ..)... .o._.....
 0ca0 13040a00 138b0500 93072000 6306fb18  .......... .c...
 0cb0 93073000 6308fb04 93071000 93060700  ..0.c...........
 0cc0 6314fb12 13050000 13070000 13147501  c.............u.
 0cd0 3364e400 1395f601 8320c102 3365a400  3d....... ..3e..
 0ce0 03248102 83244102 03290102 8329c101  .$...$A..)...)..
 0cf0 032a8101 832a4101 032b0101 13010103  .*...*A..+......
 0d00 67800000 93060000 1305f00f 37074000  g...........7.@.
 0d10 6ff0dffb 631c0416 93d77501 139a9500  o...c.....u.....
 0d20 93f7f70f 93094000 93040000 130b1000  ......@.........
 0d30 135a9a00 13d9f501 e39207f0 63100a12  .Z..........c...
 0d40 93e91900 93051000 6ff05ff1 63180412  ........o._.c...
 0d50 93098000 9304f00f 130b2000 6ff09fec  .......... .o...
 0d60 b7080100 1387f8ff 93550401 13580a01  .........U...X..
 0d70 3374e400 337aea00 33058a02 338a4503  3t..3z..3...3.E.
 0d80 13570501 33048802 b3074401 b307f700  .W..3.....D.....
 0d90 b3850503 63f44701 b3851501 37080100  ....c.G.....7...
 0da0 1308f8ff 33f70701 13170701 33750501  ....3.......3u..
 0db0 3307a700 13146700 93d70701 33348000  3.....g.....34..
 0dc0 1357a701 b387b700 3367e400 93976700  .W......3g....g.
 0dd0 33e4e700 13974700 63540714 93571400  3.....G.cT...W..
 0de0 13741400 33e48700 9307f607 6356f00c  .t..3.......cV..
 0df0 13777400 630a0700 1377f400 93054000  .wt.c....w....@.
 0e00 6304b700 13044400 13174400 635a0700  c.....D...D.cZ..
 0e10 b70700f8 9387f7ff 3374f400 93070608  ........3t......
 0e20 1307e00f 6348f70e 13146400 13579400  ....cH....d..W..
 0e30 13f5f70f 6ff09fe9 93060700 1305f00f  ....o...........
 0e40 13070000 6ff09fe8 13870a00 6ff0dfe5  ....o.......o...
 0e50 93e93900 93053000 6ff05fe0 13050a00  ..9...0.o._.....
 0e60 eff00f9a 9307b5ff b384a440 331afa00  ...........@3...
 0e70 9384a4f8 93050000 6ff05fde 9309c000  ........o._.....
 0e80 9304f00f 130b3000 6ff0dfd9 13050400  ......0.o.......
 0e90 2326b100 eff0cf96 9307b5ff 9304a0f8  #&..............
 0ea0 8325c100 3314f400 b384a440 93090000  .%..3......@....
 0eb0 130b0000 6ff01fd7 93051000 b385f540  ....o..........@
 0ec0 638a0700 9307b001 13050000 13070000  c...............
 0ed0 e3ceb7de 9307e609 b317f400 b337f000  .............7..
 0ee0 3354b400 3364f400 93777400 638a0700  3T..3d...wt.c...
 0ef0 9377f400 13074000 6384e700 13044400  .w....@.c.....D.
 0f00 93175400 63d20702 13051000 13070000  ..T.c...........
 0f10 6ff0dfdb 1305f00f 13070000 6ff01fdb  o...........o...
 0f20 13860400 6ff05fec 13146400 13579400  ....o._...d..W..
 0f30 13050000 6ff09fd9 b7068000 130101ff  ....o...........
 0f40 13d67501 9386f6ff 93577501 33f7a600  ..u......Wu.3...
 0f50 93f7f70f b3f6b600 9378f60f 23229100  .........x..#"..
 0f60 23202101 1355f501 23261100 23248100  # !..U..#&..#$..
 0f70 1308f00f 13060700 13890700 93040500  ................
 0f80 13133700 93d5f501 139e3600 b38e1741  ..7.......6....A
 0f90 63800815 93c51500 630cb514 635cd00f  c.......c...c\..
 0fa0 639e0812 63080e24 938efeff 3307c341  c...c..$....3..A
 0fb0 638a0e02 1307f00f 6382e710 9307b001  c.......c.......
 0fc0 13071000 63ced701 93070002 b387d741  ....c..........A
 0fd0 b317fe00 3357de01 b337f000 3367f700  ....3W...7..3g..
 0fe0 3307e340 93175700 63d00720 37040004  3..@..W.c.. 7...
 0ff0 1304f4ff 33748700 13050400 eff04f80  ....3t........O.
 1000 1305b5ff 3317a400 63442527 33052541  ....3...cD%'3.%A
 1010 13041500 93070002 b3878740 b317f700  ...........@....
 1020 b337f000 33578700 3367f700 13090000  .7..3W..3g......
 1030 93777700 638a0700 9376f700 93074000  .ww.c....v....@.
 1040 6384f600 13074700 93175700 63d2071a  c.....G...W.c...
 1050 93071900 9306f00f 13f51400 638cd71a  ............c...
 1060 13176700 13579700 93f7f70f 8320c100  ..g..W....... ..
 1070 03248100 93977701 33e7e700 1315f501  .$....w.3.......
 1080 83244100 03290100 3365a700 13010101  .$A..)..3e......
 1090 67800000 63860e0c 3386f840 63940720  g...c...3..@c.. 
 10a0 630e0326 1306f6ff 6300062a 9307f00f  c..&....c..*....
 10b0 6392f820 93840500 13860600 630a0614  c.. ........c...
 10c0 13050000 9307f00f 37074000 6ff01ffa  ........7.@.o...
 10d0 e3020eec 6306b514 e35ed0fb 1307f00f  ....c....^......
 10e0 e38ee7fc b7070004 336efe00 6ff01fed  ........3n..o...
 10f0 6358d013 6380080a 1307f00f e380e7fc  cX..c...........
 1100 b7070004 336efe00 9307b001 13071000  ....3n..........
 1110 63ced701 93070002 b387d741 b317fe00  c..........A....
 1120 3357de01 b337f000 3367f700 33076700  3W...7..3g..3.g.
 1130 93175700 63da070a 13091900 9307f00f  ..W.c...........
 1140 630af90c b706007e 93571700 9386f6ff  c......~.W......
 1150 13771700 b3f7d700 33e7e700 6ff05fed  .w......3...o._.
 1160 13881700 1378e80f 631e0810 6390071c  .....x..c...c...
 1170 6304031e e30c0eee 3307c341 93165700  c.......3..A..W.
 1180 63da061e 33076e40 13090000 93840500  c...3.n@........
 1190 6ff01fea 63000e06 938efeff 3307c301  o...c.......3...
 11a0 e3880ef8 1307f00f e390e7f6 6ff01ff1  ............o...
 11b0 13891700 9375e90f 63920514 63900718  .....u..c...c...
 11c0 6304031c e3040eea 3307c301 93175700  c.......3.....W.
 11d0 13090000 63da0700 b70700fc 9387f7ff  ....c...........
 11e0 3377f700 13091000 93777700 e39607e4  3w.......ww.....
 11f0 13563700 9307f00f e302f9ec 13179600  .V7.............
 1200 13579700 9377f90f 13f51400 6ff01fe6  .W...w......o...
 1210 13f51400 9307f00f 13070000 6ff01fe5  ............o...
 1220 e3880ef8 3387f840 6390070c 630e0312  ....3..@c...c...
 1230 1307f7ff 630e0714 9307f00f e38ef8e6  ....c...........
 1240 9306b001 93071000 63cee600 93070002  ........c.......
 1250 b387e740 b317f300 3357e300 b337f000  ...@....3W...7..
 1260 b367f700 3387c701 13890800 6ff05fec  .g..3.......o._.
 1270 b70700fc 9387f7ff 3309a940 3377f700  ........3..@3w..
 1280 6ff01fdb 3304c341 93175400 63c20708  o...3..A..T.c...
 1290 e31404d6 13050000 93070000 13070000  ................
 12a0 6ff0dfdc 9307f00f e386f8e0 b7070004  o...............
 12b0 3363f300 9307b001 13071000 63cec700  3c..........c...
 12c0 93070002 b387c740 b317f300 3357c300  .......@....3W..
 12d0 b337f000 3367f700 3307ee40 13890800  .7..3g..3..@....
 12e0 93840500 6ff01fd0 9307f00f e386f8dc  ....o...........
 12f0 b7070004 3363f300 6ff09ff4 9307f00f  ....3c..o.......
 1300 e30af9f0 3307c301 13571700 6ff0dfed  ....3....W..o...
 1310 33046e40 93840500 6ff01fce 13860600  3.n@....o.......
 1320 13890800 93840500 6ff0dfec 631a0300  ........o...c...
 1330 e3080ed8 93840500 6ff01fd8 e30e03d6  ........o.......
 1340 e30e0ed6 6ff0dfd7 33076e40 13890800  ....o...3.n@....
 1350 93840500 6ff01fc9 63020e02 13850500  ....o...c.......
 1360 13870600 6ff09fd0 13860600 13890800  ....o...........
 1370 6ff05fe8 13090000 e31807e6 13050000  o._.............
 1380 13070000 6ff09fce 13870600 6ff01fce  ....o.......o...
 1390 3307c301 13890800 6ff09fd9 7310457c  3.......o...s.E|
 13a0 7390557c 73d0707c 67800000 7310157c  s.U|s.p|g...s..|
 13b0 67800000 7310257c 67800000 732530fc  g...s.%|g...s%0.
 13c0 67800000 732520fc 67800000 60070000  g...s% .g...`...
 13d0 c4050000 84060000 50050000 84060000  ........P.......
 13e0 78050000 84060000 50050000 c4050000  x.......P.......
 13f0 c4050000 78050000 50050000 5c050000  ....x...P...\...
 1400 5c050000 5c050000 78050000 c4050000  \...\...x.......
 1410 c4050000 84060000 f4060000 84060000  ................
 1420 78050000 84060000 f4060000 c4050000  x...............
 1430 c4050000 78050000 f4060000 5c050000  ....x.......\...
 1440 5c050000 5c050000 78050000 600d0000  \...\...x...`...
 1450 a00c0000 a00c0000 9c0c0000 a80c0000  ................
 1460 a80c0000 040d0000 9c0c0000 a80c0000  ................
 1470 040d0000 a80c0000 9c0c0000 480e0000  ............H...
 1480 480e0000 480e0000 040d0000           H...H.......    
Contents of section .riscv.attributes:
 0000 41200000 00726973 63760001 16000000  A ...riscv......
 0010 04100572 76333269 3270305f 6d327030  ...rv32i2p0_m2p0
 0020 00                                   .               
Contents of section .comment:
 0000 4743433a 20282920 392e332e 3000      GCC: () 9.3.0.  

Disassembly of section .text:

00000000 <__clzsi2>:
       0:	00500713          	li	a4,5
       4:	01000793          	li	a5,16
       8:	02000613          	li	a2,32
       c:	00100593          	li	a1,1
      10:	40f556b3          	sra	a3,a0,a5
      14:	fff70713          	addi	a4,a4,-1
      18:	00068863          	beqz	a3,28 <__clzsi2+0x28>
      1c:	00b78e63          	beq	a5,a1,38 <__clzsi2+0x38>
      20:	40f60633          	sub	a2,a2,a5
      24:	00068513          	mv	a0,a3
      28:	4017d793          	srai	a5,a5,0x1
      2c:	fe0712e3          	bnez	a4,10 <__clzsi2+0x10>
      30:	40a60533          	sub	a0,a2,a0
      34:	00008067          	ret
      38:	ffe60513          	addi	a0,a2,-2
      3c:	00008067          	ret

00000040 <__addsf3>:
      40:	008006b7          	lui	a3,0x800
      44:	ff010113          	addi	sp,sp,-16
      48:	01755713          	srli	a4,a0,0x17
      4c:	fff68693          	addi	a3,a3,-1 # 7fffff <_stack_start+0x7fcfff>
      50:	0175d613          	srli	a2,a1,0x17
      54:	00a6f833          	and	a6,a3,a0
      58:	00912223          	sw	s1,4(sp)
      5c:	00b6f6b3          	and	a3,a3,a1
      60:	0ff77493          	andi	s1,a4,255
      64:	01212023          	sw	s2,0(sp)
      68:	0ff67613          	andi	a2,a2,255
      6c:	01f55913          	srli	s2,a0,0x1f
      70:	00112623          	sw	ra,12(sp)
      74:	00812423          	sw	s0,8(sp)
      78:	01f5d593          	srli	a1,a1,0x1f
      7c:	00080793          	mv	a5,a6
      80:	00048713          	mv	a4,s1
      84:	00090313          	mv	t1,s2
      88:	00381e13          	slli	t3,a6,0x3
      8c:	00369513          	slli	a0,a3,0x3
      90:	40c488b3          	sub	a7,s1,a2
      94:	12b90863          	beq	s2,a1,1c4 <heap_size+0xc4>
      98:	0f105863          	blez	a7,188 <heap_size+0x88>
      9c:	18060c63          	beqz	a2,234 <heap_size+0x134>
      a0:	0ff00793          	li	a5,255
      a4:	10f48663          	beq	s1,a5,1b0 <heap_size+0xb0>
      a8:	040007b7          	lui	a5,0x4000
      ac:	00f56533          	or	a0,a0,a5
      b0:	01b00713          	li	a4,27
      b4:	00100793          	li	a5,1
      b8:	01174e63          	blt	a4,a7,d4 <__addsf3+0x94>
      bc:	02000713          	li	a4,32
      c0:	41170733          	sub	a4,a4,a7
      c4:	00e51733          	sll	a4,a0,a4
      c8:	011557b3          	srl	a5,a0,a7
      cc:	00e03733          	snez	a4,a4
      d0:	00e7e7b3          	or	a5,a5,a4
      d4:	40fe07b3          	sub	a5,t3,a5
      d8:	00579713          	slli	a4,a5,0x5
      dc:	1e075c63          	bgez	a4,2d4 <heap_size+0x1d4>
      e0:	04000437          	lui	s0,0x4000
      e4:	fff40413          	addi	s0,s0,-1 # 3ffffff <_stack_start+0x3ffcfff>
      e8:	0087f433          	and	s0,a5,s0
      ec:	00040513          	mv	a0,s0
      f0:	f11ff0ef          	jal	ra,0 <__clzsi2>
      f4:	ffb50513          	addi	a0,a0,-5
      f8:	00a417b3          	sll	a5,s0,a0
      fc:	26954063          	blt	a0,s1,35c <heap_size+0x25c>
     100:	40950733          	sub	a4,a0,s1
     104:	00170413          	addi	s0,a4,1
     108:	02000713          	li	a4,32
     10c:	40870733          	sub	a4,a4,s0
     110:	00e79733          	sll	a4,a5,a4
     114:	00e03733          	snez	a4,a4
     118:	0087d7b3          	srl	a5,a5,s0
     11c:	00e7e7b3          	or	a5,a5,a4
     120:	00000493          	li	s1,0
     124:	0077f713          	andi	a4,a5,7
     128:	00070a63          	beqz	a4,13c <heap_size+0x3c>
     12c:	00f7f713          	andi	a4,a5,15
     130:	00400693          	li	a3,4
     134:	00d70463          	beq	a4,a3,13c <heap_size+0x3c>
     138:	00478793          	addi	a5,a5,4 # 4000004 <_stack_start+0x3ffd004>
     13c:	00579713          	slli	a4,a5,0x5
     140:	18075e63          	bgez	a4,2dc <heap_size+0x1dc>
     144:	00148713          	addi	a4,s1,1
     148:	0ff00693          	li	a3,255
     14c:	00090313          	mv	t1,s2
     150:	1ad70863          	beq	a4,a3,300 <heap_size+0x200>
     154:	00679793          	slli	a5,a5,0x6
     158:	0097d793          	srli	a5,a5,0x9
     15c:	0ff77713          	andi	a4,a4,255
     160:	00c12083          	lw	ra,12(sp)
     164:	00812403          	lw	s0,8(sp)
     168:	01771513          	slli	a0,a4,0x17
     16c:	00f567b3          	or	a5,a0,a5
     170:	01f31513          	slli	a0,t1,0x1f
     174:	00412483          	lw	s1,4(sp)
     178:	00012903          	lw	s2,0(sp)
     17c:	00a7e533          	or	a0,a5,a0
     180:	01010113          	addi	sp,sp,16
     184:	00008067          	ret
     188:	0c088463          	beqz	a7,250 <heap_size+0x150>
     18c:	40960833          	sub	a6,a2,s1
     190:	20049063          	bnez	s1,390 <heap_size+0x290>
     194:	260e0a63          	beqz	t3,408 <stack_size+0x8>
     198:	fff80813          	addi	a6,a6,-1
     19c:	28080c63          	beqz	a6,434 <stack_size+0x34>
     1a0:	0ff00793          	li	a5,255
     1a4:	1ef61e63          	bne	a2,a5,3a0 <heap_size+0x2a0>
     1a8:	00058913          	mv	s2,a1
     1ac:	00068813          	mv	a6,a3
     1b0:	14080663          	beqz	a6,2fc <heap_size+0x1fc>
     1b4:	00000313          	li	t1,0
     1b8:	0ff00713          	li	a4,255
     1bc:	004007b7          	lui	a5,0x400
     1c0:	fa1ff06f          	j	160 <heap_size+0x60>
     1c4:	15105463          	blez	a7,30c <heap_size+0x20c>
     1c8:	0a060c63          	beqz	a2,280 <heap_size+0x180>
     1cc:	0ff00793          	li	a5,255
     1d0:	fef480e3          	beq	s1,a5,1b0 <heap_size+0xb0>
     1d4:	040007b7          	lui	a5,0x4000
     1d8:	00f56533          	or	a0,a0,a5
     1dc:	01b00713          	li	a4,27
     1e0:	00100793          	li	a5,1
     1e4:	01174e63          	blt	a4,a7,200 <heap_size+0x100>
     1e8:	02000713          	li	a4,32
     1ec:	41170733          	sub	a4,a4,a7
     1f0:	00e51733          	sll	a4,a0,a4
     1f4:	011557b3          	srl	a5,a0,a7
     1f8:	00e03733          	snez	a4,a4
     1fc:	00e7e7b3          	or	a5,a5,a4
     200:	01c787b3          	add	a5,a5,t3
     204:	00579713          	slli	a4,a5,0x5
     208:	0c075663          	bgez	a4,2d4 <heap_size+0x1d4>
     20c:	00148493          	addi	s1,s1,1
     210:	0ff00713          	li	a4,255
     214:	0ee48663          	beq	s1,a4,300 <heap_size+0x200>
     218:	7e0006b7          	lui	a3,0x7e000
     21c:	0017d713          	srli	a4,a5,0x1
     220:	fff68693          	addi	a3,a3,-1 # 7dffffff <_stack_start+0x7dffcfff>
     224:	0017f793          	andi	a5,a5,1
     228:	00d77733          	and	a4,a4,a3
     22c:	00f767b3          	or	a5,a4,a5
     230:	ef5ff06f          	j	124 <heap_size+0x24>
     234:	0a050663          	beqz	a0,2e0 <heap_size+0x1e0>
     238:	fff88893          	addi	a7,a7,-1
     23c:	40ae07b3          	sub	a5,t3,a0
     240:	e8088ce3          	beqz	a7,d8 <__addsf3+0x98>
     244:	0ff00793          	li	a5,255
     248:	e6f494e3          	bne	s1,a5,b0 <__addsf3+0x70>
     24c:	f65ff06f          	j	1b0 <heap_size+0xb0>
     250:	00148613          	addi	a2,s1,1
     254:	0fe67613          	andi	a2,a2,254
     258:	10061c63          	bnez	a2,370 <heap_size+0x270>
     25c:	1a049e63          	bnez	s1,418 <stack_size+0x18>
     260:	1e0e0263          	beqz	t3,444 <stack_size+0x44>
     264:	ee050ee3          	beqz	a0,160 <heap_size+0x60>
     268:	40ae07b3          	sub	a5,t3,a0
     26c:	00579693          	slli	a3,a5,0x5
     270:	1e06d863          	bgez	a3,460 <stack_size+0x60>
     274:	41c507b3          	sub	a5,a0,t3
     278:	00058913          	mv	s2,a1
     27c:	ea9ff06f          	j	124 <heap_size+0x24>
     280:	06050063          	beqz	a0,2e0 <heap_size+0x1e0>
     284:	fff88893          	addi	a7,a7,-1
     288:	00ae07b3          	add	a5,t3,a0
     28c:	f6088ce3          	beqz	a7,204 <heap_size+0x104>
     290:	0ff00793          	li	a5,255
     294:	f4f494e3          	bne	s1,a5,1dc <heap_size+0xdc>
     298:	f19ff06f          	j	1b0 <heap_size+0xb0>
     29c:	00148493          	addi	s1,s1,1
     2a0:	0fe4f613          	andi	a2,s1,254
     2a4:	14061263          	bnez	a2,3e8 <heap_size+0x2e8>
     2a8:	18071063          	bnez	a4,428 <stack_size+0x28>
     2ac:	1c0e0263          	beqz	t3,470 <stack_size+0x70>
     2b0:	ea0508e3          	beqz	a0,160 <heap_size+0x60>
     2b4:	00ae07b3          	add	a5,t3,a0
     2b8:	00579713          	slli	a4,a5,0x5
     2bc:	00000493          	li	s1,0
     2c0:	00075a63          	bgez	a4,2d4 <heap_size+0x1d4>
     2c4:	fc000737          	lui	a4,0xfc000
     2c8:	fff70713          	addi	a4,a4,-1 # fbffffff <_stack_start+0xfbffcfff>
     2cc:	00e7f7b3          	and	a5,a5,a4
     2d0:	00100493          	li	s1,1
     2d4:	0077f713          	andi	a4,a5,7
     2d8:	e4071ae3          	bnez	a4,12c <heap_size+0x2c>
     2dc:	0037d813          	srli	a6,a5,0x3
     2e0:	0ff00793          	li	a5,255
     2e4:	ecf486e3          	beq	s1,a5,1b0 <heap_size+0xb0>
     2e8:	00981793          	slli	a5,a6,0x9
     2ec:	0097d793          	srli	a5,a5,0x9
     2f0:	0ff4f713          	andi	a4,s1,255
     2f4:	00090313          	mv	t1,s2
     2f8:	e69ff06f          	j	160 <heap_size+0x60>
     2fc:	00090313          	mv	t1,s2
     300:	0ff00713          	li	a4,255
     304:	00000793          	li	a5,0
     308:	e59ff06f          	j	160 <heap_size+0x60>
     30c:	f80888e3          	beqz	a7,29c <heap_size+0x19c>
     310:	409607b3          	sub	a5,a2,s1
     314:	0c049063          	bnez	s1,3d4 <heap_size+0x2d4>
     318:	120e0e63          	beqz	t3,454 <stack_size+0x54>
     31c:	fff78793          	addi	a5,a5,-1 # 3ffffff <_stack_start+0x3ffcfff>
     320:	14078c63          	beqz	a5,478 <stack_size+0x78>
     324:	0ff00713          	li	a4,255
     328:	e8e602e3          	beq	a2,a4,1ac <heap_size+0xac>
     32c:	01b00693          	li	a3,27
     330:	00100713          	li	a4,1
     334:	00f6ce63          	blt	a3,a5,350 <heap_size+0x250>
     338:	02000713          	li	a4,32
     33c:	40f70733          	sub	a4,a4,a5
     340:	00ee1733          	sll	a4,t3,a4
     344:	00fe57b3          	srl	a5,t3,a5
     348:	00e03733          	snez	a4,a4
     34c:	00e7e733          	or	a4,a5,a4
     350:	00a707b3          	add	a5,a4,a0
     354:	00060493          	mv	s1,a2
     358:	eadff06f          	j	204 <heap_size+0x104>
     35c:	fc000737          	lui	a4,0xfc000
     360:	fff70713          	addi	a4,a4,-1 # fbffffff <_stack_start+0xfbffcfff>
     364:	40a484b3          	sub	s1,s1,a0
     368:	00e7f7b3          	and	a5,a5,a4
     36c:	db9ff06f          	j	124 <heap_size+0x24>
     370:	40ae0433          	sub	s0,t3,a0
     374:	00541793          	slli	a5,s0,0x5
     378:	0807c263          	bltz	a5,3fc <heap_size+0x2fc>
     37c:	d60418e3          	bnez	s0,ec <__addsf3+0xac>
     380:	00000313          	li	t1,0
     384:	00000713          	li	a4,0
     388:	00000793          	li	a5,0
     38c:	dd5ff06f          	j	160 <heap_size+0x60>
     390:	0ff00793          	li	a5,255
     394:	e0f60ae3          	beq	a2,a5,1a8 <heap_size+0xa8>
     398:	040007b7          	lui	a5,0x4000
     39c:	00fe6e33          	or	t3,t3,a5
     3a0:	01b00713          	li	a4,27
     3a4:	00100793          	li	a5,1
     3a8:	01074e63          	blt	a4,a6,3c4 <heap_size+0x2c4>
     3ac:	02000713          	li	a4,32
     3b0:	41070733          	sub	a4,a4,a6
     3b4:	00ee1733          	sll	a4,t3,a4
     3b8:	010e57b3          	srl	a5,t3,a6
     3bc:	00e03733          	snez	a4,a4
     3c0:	00e7e7b3          	or	a5,a5,a4
     3c4:	40f507b3          	sub	a5,a0,a5
     3c8:	00060493          	mv	s1,a2
     3cc:	00058913          	mv	s2,a1
     3d0:	d09ff06f          	j	d8 <__addsf3+0x98>
     3d4:	0ff00713          	li	a4,255
     3d8:	dce60ae3          	beq	a2,a4,1ac <heap_size+0xac>
     3dc:	04000737          	lui	a4,0x4000
     3e0:	00ee6e33          	or	t3,t3,a4
     3e4:	f49ff06f          	j	32c <heap_size+0x22c>
     3e8:	0ff00793          	li	a5,255
     3ec:	f0f48ae3          	beq	s1,a5,300 <heap_size+0x200>
     3f0:	00ae07b3          	add	a5,t3,a0
     3f4:	0017d793          	srli	a5,a5,0x1
     3f8:	eddff06f          	j	2d4 <heap_size+0x1d4>
     3fc:	41c50433          	sub	s0,a0,t3
     400:	00058913          	mv	s2,a1
     404:	ce9ff06f          	j	ec <__addsf3+0xac>
     408:	00068813          	mv	a6,a3
     40c:	00060493          	mv	s1,a2
     410:	00058913          	mv	s2,a1
     414:	ecdff06f          	j	2e0 <heap_size+0x1e0>
     418:	000e1a63          	bnez	t3,42c <stack_size+0x2c>
     41c:	d8050ce3          	beqz	a0,1b4 <heap_size+0xb4>
     420:	00058913          	mv	s2,a1
     424:	d89ff06f          	j	1ac <heap_size+0xac>
     428:	d80e02e3          	beqz	t3,1ac <heap_size+0xac>
     42c:	d80502e3          	beqz	a0,1b0 <heap_size+0xb0>
     430:	d85ff06f          	j	1b4 <heap_size+0xb4>
     434:	41c507b3          	sub	a5,a0,t3
     438:	00060493          	mv	s1,a2
     43c:	00058913          	mv	s2,a1
     440:	c99ff06f          	j	d8 <__addsf3+0x98>
     444:	02050063          	beqz	a0,464 <stack_size+0x64>
     448:	00058313          	mv	t1,a1
     44c:	00068793          	mv	a5,a3
     450:	d11ff06f          	j	160 <heap_size+0x60>
     454:	00068813          	mv	a6,a3
     458:	00060493          	mv	s1,a2
     45c:	e85ff06f          	j	2e0 <heap_size+0x1e0>
     460:	e6079ae3          	bnez	a5,2d4 <heap_size+0x1d4>
     464:	00000313          	li	t1,0
     468:	00000793          	li	a5,0
     46c:	cf5ff06f          	j	160 <heap_size+0x60>
     470:	00068793          	mv	a5,a3
     474:	cedff06f          	j	160 <heap_size+0x60>
     478:	00ae07b3          	add	a5,t3,a0
     47c:	00060493          	mv	s1,a2
     480:	d85ff06f          	j	204 <heap_size+0x104>

00000484 <__divsf3>:
     484:	fc010113          	addi	sp,sp,-64
     488:	01755793          	srli	a5,a0,0x17
     48c:	02912a23          	sw	s1,52(sp)
     490:	03512223          	sw	s5,36(sp)
     494:	01712e23          	sw	s7,28(sp)
     498:	00951693          	slli	a3,a0,0x9
     49c:	01f55493          	srli	s1,a0,0x1f
     4a0:	02112e23          	sw	ra,60(sp)
     4a4:	02812c23          	sw	s0,56(sp)
     4a8:	03212823          	sw	s2,48(sp)
     4ac:	03312623          	sw	s3,44(sp)
     4b0:	03412423          	sw	s4,40(sp)
     4b4:	03612023          	sw	s6,32(sp)
     4b8:	0ff7f793          	andi	a5,a5,255
     4bc:	0096da93          	srli	s5,a3,0x9
     4c0:	00048b93          	mv	s7,s1
     4c4:	12078a63          	beqz	a5,5f8 <__divsf3+0x174>
     4c8:	0ff00613          	li	a2,255
     4cc:	14c78063          	beq	a5,a2,60c <__divsf3+0x188>
     4d0:	003a9693          	slli	a3,s5,0x3
     4d4:	04000637          	lui	a2,0x4000
     4d8:	00c6eab3          	or	s5,a3,a2
     4dc:	f8178a13          	addi	s4,a5,-127 # 3ffff81 <_stack_start+0x3ffcf81>
     4e0:	00000413          	li	s0,0
     4e4:	00000b13          	li	s6,0
     4e8:	0175d793          	srli	a5,a1,0x17
     4ec:	00959993          	slli	s3,a1,0x9
     4f0:	0ff7f793          	andi	a5,a5,255
     4f4:	0099d993          	srli	s3,s3,0x9
     4f8:	01f5d913          	srli	s2,a1,0x1f
     4fc:	0c078a63          	beqz	a5,5d0 <__divsf3+0x14c>
     500:	0ff00713          	li	a4,255
     504:	02e78e63          	beq	a5,a4,540 <__divsf3+0xbc>
     508:	04000737          	lui	a4,0x4000
     50c:	00399993          	slli	s3,s3,0x3
     510:	f8178793          	addi	a5,a5,-127
     514:	00e9e9b3          	or	s3,s3,a4
     518:	40fa0a33          	sub	s4,s4,a5
     51c:	00000713          	li	a4,0
     520:	00e46433          	or	s0,s0,a4
     524:	000017b7          	lui	a5,0x1
     528:	3cc78793          	addi	a5,a5,972 # 13cc <get_switches+0x8>
     52c:	00241413          	slli	s0,s0,0x2
     530:	00f40433          	add	s0,s0,a5
     534:	00042783          	lw	a5,0(s0)
     538:	0124c4b3          	xor	s1,s1,s2
     53c:	00078067          	jr	a5
     540:	f01a0a13          	addi	s4,s4,-255
     544:	12099c63          	bnez	s3,67c <__divsf3+0x1f8>
     548:	00200713          	li	a4,2
     54c:	08c0006f          	j	5d8 <__divsf3+0x154>
     550:	00098a93          	mv	s5,s3
     554:	00090b93          	mv	s7,s2
     558:	00070b13          	mv	s6,a4
     55c:	00100793          	li	a5,1
     560:	18fb0263          	beq	s6,a5,6e4 <__divsf3+0x260>
     564:	120b0663          	beqz	s6,690 <__divsf3+0x20c>
     568:	00200793          	li	a5,2
     56c:	04fb0a63          	beq	s6,a5,5c0 <__divsf3+0x13c>
     570:	00300793          	li	a5,3
     574:	10fb1e63          	bne	s6,a5,690 <__divsf3+0x20c>
     578:	00000493          	li	s1,0
     57c:	0ff00793          	li	a5,255
     580:	004006b7          	lui	a3,0x400
     584:	03c12083          	lw	ra,60(sp)
     588:	03812403          	lw	s0,56(sp)
     58c:	01779513          	slli	a0,a5,0x17
     590:	01f49493          	slli	s1,s1,0x1f
     594:	00d56533          	or	a0,a0,a3
     598:	03012903          	lw	s2,48(sp)
     59c:	02c12983          	lw	s3,44(sp)
     5a0:	02812a03          	lw	s4,40(sp)
     5a4:	02412a83          	lw	s5,36(sp)
     5a8:	02012b03          	lw	s6,32(sp)
     5ac:	01c12b83          	lw	s7,28(sp)
     5b0:	00956533          	or	a0,a0,s1
     5b4:	03412483          	lw	s1,52(sp)
     5b8:	04010113          	addi	sp,sp,64
     5bc:	00008067          	ret
     5c0:	000b8493          	mv	s1,s7
     5c4:	0ff00793          	li	a5,255
     5c8:	00000693          	li	a3,0
     5cc:	fb9ff06f          	j	584 <__divsf3+0x100>
     5d0:	08099663          	bnez	s3,65c <__divsf3+0x1d8>
     5d4:	00100713          	li	a4,1
     5d8:	00e46433          	or	s0,s0,a4
     5dc:	000017b7          	lui	a5,0x1
     5e0:	40c78793          	addi	a5,a5,1036 # 140c <get_switches+0x48>
     5e4:	00241413          	slli	s0,s0,0x2
     5e8:	00f40433          	add	s0,s0,a5
     5ec:	00042783          	lw	a5,0(s0)
     5f0:	0124c4b3          	xor	s1,s1,s2
     5f4:	00078067          	jr	a5
     5f8:	020a9c63          	bnez	s5,630 <__divsf3+0x1ac>
     5fc:	00400413          	li	s0,4
     600:	00000a13          	li	s4,0
     604:	00100b13          	li	s6,1
     608:	ee1ff06f          	j	4e8 <__divsf3+0x64>
     60c:	000a9a63          	bnez	s5,620 <__divsf3+0x19c>
     610:	00800413          	li	s0,8
     614:	0ff00a13          	li	s4,255
     618:	00200b13          	li	s6,2
     61c:	ecdff06f          	j	4e8 <__divsf3+0x64>
     620:	00c00413          	li	s0,12
     624:	0ff00a13          	li	s4,255
     628:	00300b13          	li	s6,3
     62c:	ebdff06f          	j	4e8 <__divsf3+0x64>
     630:	000a8513          	mv	a0,s5
     634:	00b12623          	sw	a1,12(sp)
     638:	9c9ff0ef          	jal	ra,0 <__clzsi2>
     63c:	ffb50793          	addi	a5,a0,-5
     640:	00fa9ab3          	sll	s5,s5,a5
     644:	f8a00793          	li	a5,-118
     648:	00c12583          	lw	a1,12(sp)
     64c:	40a78a33          	sub	s4,a5,a0
     650:	00000413          	li	s0,0
     654:	00000b13          	li	s6,0
     658:	e91ff06f          	j	4e8 <__divsf3+0x64>
     65c:	00098513          	mv	a0,s3
     660:	9a1ff0ef          	jal	ra,0 <__clzsi2>
     664:	ffb50713          	addi	a4,a0,-5
     668:	00aa07b3          	add	a5,s4,a0
     66c:	00e999b3          	sll	s3,s3,a4
     670:	07678a13          	addi	s4,a5,118
     674:	00000713          	li	a4,0
     678:	ea9ff06f          	j	520 <__divsf3+0x9c>
     67c:	00300713          	li	a4,3
     680:	ea1ff06f          	j	520 <__divsf3+0x9c>
     684:	00000793          	li	a5,0
     688:	00000693          	li	a3,0
     68c:	ef9ff06f          	j	584 <__divsf3+0x100>
     690:	000b8493          	mv	s1,s7
     694:	07fa0713          	addi	a4,s4,127
     698:	06e05663          	blez	a4,704 <__divsf3+0x280>
     69c:	007af793          	andi	a5,s5,7
     6a0:	00078a63          	beqz	a5,6b4 <__divsf3+0x230>
     6a4:	00faf793          	andi	a5,s5,15
     6a8:	00400693          	li	a3,4
     6ac:	00d78463          	beq	a5,a3,6b4 <__divsf3+0x230>
     6b0:	004a8a93          	addi	s5,s5,4
     6b4:	004a9793          	slli	a5,s5,0x4
     6b8:	0007da63          	bgez	a5,6cc <__divsf3+0x248>
     6bc:	f80007b7          	lui	a5,0xf8000
     6c0:	fff78793          	addi	a5,a5,-1 # f7ffffff <_stack_start+0xf7ffcfff>
     6c4:	00fafab3          	and	s5,s5,a5
     6c8:	080a0713          	addi	a4,s4,128
     6cc:	0fe00793          	li	a5,254
     6d0:	eee7cae3          	blt	a5,a4,5c4 <__divsf3+0x140>
     6d4:	006a9693          	slli	a3,s5,0x6
     6d8:	0096d693          	srli	a3,a3,0x9
     6dc:	0ff77793          	andi	a5,a4,255
     6e0:	ea5ff06f          	j	584 <__divsf3+0x100>
     6e4:	000b8493          	mv	s1,s7
     6e8:	00000793          	li	a5,0
     6ec:	00000693          	li	a3,0
     6f0:	e95ff06f          	j	584 <__divsf3+0x100>
     6f4:	00090b93          	mv	s7,s2
     6f8:	00070b13          	mv	s6,a4
     6fc:	00000a93          	li	s5,0
     700:	e5dff06f          	j	55c <__divsf3+0xd8>
     704:	00100613          	li	a2,1
     708:	40e60633          	sub	a2,a2,a4
     70c:	00070a63          	beqz	a4,720 <__divsf3+0x29c>
     710:	01b00713          	li	a4,27
     714:	00000793          	li	a5,0
     718:	00000693          	li	a3,0
     71c:	e6c744e3          	blt	a4,a2,584 <__divsf3+0x100>
     720:	09ea0793          	addi	a5,s4,158
     724:	00fa97b3          	sll	a5,s5,a5
     728:	00cad6b3          	srl	a3,s5,a2
     72c:	00f03ab3          	snez	s5,a5
     730:	0156e6b3          	or	a3,a3,s5
     734:	0076f793          	andi	a5,a3,7
     738:	00078a63          	beqz	a5,74c <__divsf3+0x2c8>
     73c:	00f6f793          	andi	a5,a3,15
     740:	00400713          	li	a4,4
     744:	00e78463          	beq	a5,a4,74c <__divsf3+0x2c8>
     748:	00468693          	addi	a3,a3,4 # 400004 <_stack_start+0x3fd004>
     74c:	00569793          	slli	a5,a3,0x5
     750:	0c07da63          	bgez	a5,824 <__divsf3+0x3a0>
     754:	00100793          	li	a5,1
     758:	00000693          	li	a3,0
     75c:	e29ff06f          	j	584 <__divsf3+0x100>
     760:	00010737          	lui	a4,0x10
     764:	00599513          	slli	a0,s3,0x5
     768:	fff70713          	addi	a4,a4,-1 # ffff <_stack_start+0xcfff>
     76c:	01055793          	srli	a5,a0,0x10
     770:	00e57733          	and	a4,a0,a4
     774:	093af463          	bgeu	s5,s3,7fc <__divsf3+0x378>
     778:	02fad5b3          	divu	a1,s5,a5
     77c:	fffa0a13          	addi	s4,s4,-1
     780:	000a8613          	mv	a2,s5
     784:	00000693          	li	a3,0
     788:	02b70833          	mul	a6,a4,a1
     78c:	02f67633          	remu	a2,a2,a5
     790:	01061613          	slli	a2,a2,0x10
     794:	00d666b3          	or	a3,a2,a3
     798:	0106fe63          	bgeu	a3,a6,7b4 <__divsf3+0x330>
     79c:	00a686b3          	add	a3,a3,a0
     7a0:	fff58613          	addi	a2,a1,-1
     7a4:	06a6ec63          	bltu	a3,a0,81c <__divsf3+0x398>
     7a8:	0706fa63          	bgeu	a3,a6,81c <__divsf3+0x398>
     7ac:	ffe58593          	addi	a1,a1,-2
     7b0:	00a686b3          	add	a3,a3,a0
     7b4:	410686b3          	sub	a3,a3,a6
     7b8:	02f6dab3          	divu	s5,a3,a5
     7bc:	02f6f6b3          	remu	a3,a3,a5
     7c0:	02ea87b3          	mul	a5,s5,a4
     7c4:	01069713          	slli	a4,a3,0x10
     7c8:	00f77e63          	bgeu	a4,a5,7e4 <__divsf3+0x360>
     7cc:	00a70733          	add	a4,a4,a0
     7d0:	fffa8693          	addi	a3,s5,-1
     7d4:	04a76063          	bltu	a4,a0,814 <__divsf3+0x390>
     7d8:	02f77e63          	bgeu	a4,a5,814 <__divsf3+0x390>
     7dc:	ffea8a93          	addi	s5,s5,-2
     7e0:	00a70733          	add	a4,a4,a0
     7e4:	01059693          	slli	a3,a1,0x10
     7e8:	40f70733          	sub	a4,a4,a5
     7ec:	0156e6b3          	or	a3,a3,s5
     7f0:	00e03733          	snez	a4,a4
     7f4:	00e6eab3          	or	s5,a3,a4
     7f8:	e9dff06f          	j	694 <__divsf3+0x210>
     7fc:	001ad613          	srli	a2,s5,0x1
     800:	02f655b3          	divu	a1,a2,a5
     804:	01fa9693          	slli	a3,s5,0x1f
     808:	0106d693          	srli	a3,a3,0x10
     80c:	02b70833          	mul	a6,a4,a1
     810:	f7dff06f          	j	78c <__divsf3+0x308>
     814:	00068a93          	mv	s5,a3
     818:	fcdff06f          	j	7e4 <__divsf3+0x360>
     81c:	00060593          	mv	a1,a2
     820:	f95ff06f          	j	7b4 <__divsf3+0x330>
     824:	00669693          	slli	a3,a3,0x6
     828:	0096d693          	srli	a3,a3,0x9
     82c:	00000793          	li	a5,0
     830:	d55ff06f          	j	584 <__divsf3+0x100>

00000834 <__floatsisf>:
     834:	ff010113          	addi	sp,sp,-16
     838:	00112623          	sw	ra,12(sp)
     83c:	00812423          	sw	s0,8(sp)
     840:	00912223          	sw	s1,4(sp)
     844:	04050a63          	beqz	a0,898 <__floatsisf+0x64>
     848:	41f55713          	srai	a4,a0,0x1f
     84c:	00a744b3          	xor	s1,a4,a0
     850:	40e484b3          	sub	s1,s1,a4
     854:	00050793          	mv	a5,a0
     858:	00048513          	mv	a0,s1
     85c:	01f7d413          	srli	s0,a5,0x1f
     860:	fa0ff0ef          	jal	ra,0 <__clzsi2>
     864:	09e00793          	li	a5,158
     868:	40a787b3          	sub	a5,a5,a0
     86c:	09600713          	li	a4,150
     870:	00050693          	mv	a3,a0
     874:	04f74a63          	blt	a4,a5,8c8 <__floatsisf+0x94>
     878:	00800713          	li	a4,8
     87c:	0ff7f513          	andi	a0,a5,255
     880:	00d75663          	bge	a4,a3,88c <__floatsisf+0x58>
     884:	ff868693          	addi	a3,a3,-8
     888:	00d494b3          	sll	s1,s1,a3
     88c:	00949493          	slli	s1,s1,0x9
     890:	0094d493          	srli	s1,s1,0x9
     894:	0100006f          	j	8a4 <__floatsisf+0x70>
     898:	00000413          	li	s0,0
     89c:	00000513          	li	a0,0
     8a0:	00000493          	li	s1,0
     8a4:	00c12083          	lw	ra,12(sp)
     8a8:	01f41793          	slli	a5,s0,0x1f
     8ac:	00812403          	lw	s0,8(sp)
     8b0:	01751513          	slli	a0,a0,0x17
     8b4:	00956533          	or	a0,a0,s1
     8b8:	00f56533          	or	a0,a0,a5
     8bc:	00412483          	lw	s1,4(sp)
     8c0:	01010113          	addi	sp,sp,16
     8c4:	00008067          	ret
     8c8:	09900713          	li	a4,153
     8cc:	02f75063          	bge	a4,a5,8ec <__floatsisf+0xb8>
     8d0:	01b50513          	addi	a0,a0,27
     8d4:	00500713          	li	a4,5
     8d8:	00a49533          	sll	a0,s1,a0
     8dc:	40d70733          	sub	a4,a4,a3
     8e0:	00e4d4b3          	srl	s1,s1,a4
     8e4:	00a03533          	snez	a0,a0
     8e8:	00a4e4b3          	or	s1,s1,a0
     8ec:	00500713          	li	a4,5
     8f0:	00d75663          	bge	a4,a3,8fc <__floatsisf+0xc8>
     8f4:	ffb68713          	addi	a4,a3,-5
     8f8:	00e494b3          	sll	s1,s1,a4
     8fc:	fc000637          	lui	a2,0xfc000
     900:	fff60613          	addi	a2,a2,-1 # fbffffff <_stack_start+0xfbffcfff>
     904:	0074f593          	andi	a1,s1,7
     908:	00c4f733          	and	a4,s1,a2
     90c:	02058463          	beqz	a1,934 <__floatsisf+0x100>
     910:	00f4f493          	andi	s1,s1,15
     914:	00400593          	li	a1,4
     918:	00b48e63          	beq	s1,a1,934 <__floatsisf+0x100>
     91c:	00470713          	addi	a4,a4,4
     920:	00571593          	slli	a1,a4,0x5
     924:	0005d863          	bgez	a1,934 <__floatsisf+0x100>
     928:	09f00793          	li	a5,159
     92c:	00c77733          	and	a4,a4,a2
     930:	40d787b3          	sub	a5,a5,a3
     934:	00671493          	slli	s1,a4,0x6
     938:	0094d493          	srli	s1,s1,0x9
     93c:	0ff7f513          	andi	a0,a5,255
     940:	f65ff06f          	j	8a4 <__floatsisf+0x70>

00000944 <__floatunsisf>:
     944:	ff010113          	addi	sp,sp,-16
     948:	00112623          	sw	ra,12(sp)
     94c:	00812423          	sw	s0,8(sp)
     950:	04050863          	beqz	a0,9a0 <__floatunsisf+0x5c>
     954:	00050413          	mv	s0,a0
     958:	ea8ff0ef          	jal	ra,0 <__clzsi2>
     95c:	09e00793          	li	a5,158
     960:	40a787b3          	sub	a5,a5,a0
     964:	09600713          	li	a4,150
     968:	04f74c63          	blt	a4,a5,9c0 <__floatunsisf+0x7c>
     96c:	00800713          	li	a4,8
     970:	0ff7f793          	andi	a5,a5,255
     974:	00a75663          	bge	a4,a0,980 <__floatunsisf+0x3c>
     978:	ff850513          	addi	a0,a0,-8
     97c:	00a41433          	sll	s0,s0,a0
     980:	00941413          	slli	s0,s0,0x9
     984:	00945413          	srli	s0,s0,0x9
     988:	01779513          	slli	a0,a5,0x17
     98c:	00c12083          	lw	ra,12(sp)
     990:	00856533          	or	a0,a0,s0
     994:	00812403          	lw	s0,8(sp)
     998:	01010113          	addi	sp,sp,16
     99c:	00008067          	ret
     9a0:	00000793          	li	a5,0
     9a4:	00000413          	li	s0,0
     9a8:	01779513          	slli	a0,a5,0x17
     9ac:	00c12083          	lw	ra,12(sp)
     9b0:	00856533          	or	a0,a0,s0
     9b4:	00812403          	lw	s0,8(sp)
     9b8:	01010113          	addi	sp,sp,16
     9bc:	00008067          	ret
     9c0:	09900713          	li	a4,153
     9c4:	02f75063          	bge	a4,a5,9e4 <__floatunsisf+0xa0>
     9c8:	01b50713          	addi	a4,a0,27
     9cc:	00500693          	li	a3,5
     9d0:	00e41733          	sll	a4,s0,a4
     9d4:	40a686b3          	sub	a3,a3,a0
     9d8:	00e03733          	snez	a4,a4
     9dc:	00d45433          	srl	s0,s0,a3
     9e0:	00876433          	or	s0,a4,s0
     9e4:	00500713          	li	a4,5
     9e8:	00a75663          	bge	a4,a0,9f4 <__floatunsisf+0xb0>
     9ec:	ffb50713          	addi	a4,a0,-5
     9f0:	00e41433          	sll	s0,s0,a4
     9f4:	fc0006b7          	lui	a3,0xfc000
     9f8:	fff68693          	addi	a3,a3,-1 # fbffffff <_stack_start+0xfbffcfff>
     9fc:	00747613          	andi	a2,s0,7
     a00:	00d47733          	and	a4,s0,a3
     a04:	02060463          	beqz	a2,a2c <__floatunsisf+0xe8>
     a08:	00f47413          	andi	s0,s0,15
     a0c:	00400613          	li	a2,4
     a10:	00c40e63          	beq	s0,a2,a2c <__floatunsisf+0xe8>
     a14:	00470713          	addi	a4,a4,4
     a18:	00571613          	slli	a2,a4,0x5
     a1c:	00065863          	bgez	a2,a2c <__floatunsisf+0xe8>
     a20:	09f00793          	li	a5,159
     a24:	00d77733          	and	a4,a4,a3
     a28:	40a787b3          	sub	a5,a5,a0
     a2c:	00671413          	slli	s0,a4,0x6
     a30:	0ff7f793          	andi	a5,a5,255
     a34:	00945413          	srli	s0,s0,0x9
     a38:	01779513          	slli	a0,a5,0x17
     a3c:	00c12083          	lw	ra,12(sp)
     a40:	00856533          	or	a0,a0,s0
     a44:	00812403          	lw	s0,8(sp)
     a48:	01010113          	addi	sp,sp,16
     a4c:	00008067          	ret

00000a50 <__gesf2>:
     a50:	01755693          	srli	a3,a0,0x17
     a54:	00800737          	lui	a4,0x800
     a58:	fff70713          	addi	a4,a4,-1 # 7fffff <_stack_start+0x7fcfff>
     a5c:	0175d613          	srli	a2,a1,0x17
     a60:	0ff6f693          	andi	a3,a3,255
     a64:	0ff00813          	li	a6,255
     a68:	00a778b3          	and	a7,a4,a0
     a6c:	01f55793          	srli	a5,a0,0x1f
     a70:	00b77733          	and	a4,a4,a1
     a74:	0ff67613          	andi	a2,a2,255
     a78:	01f5d513          	srli	a0,a1,0x1f
     a7c:	03068263          	beq	a3,a6,aa0 <__gesf2+0x50>
     a80:	03060463          	beq	a2,a6,aa8 <__gesf2+0x58>
     a84:	04069863          	bnez	a3,ad4 <__gesf2+0x84>
     a88:	0018b593          	seqz	a1,a7
     a8c:	02061e63          	bnez	a2,ac8 <__gesf2+0x78>
     a90:	02071c63          	bnez	a4,ac8 <__gesf2+0x78>
     a94:	00000513          	li	a0,0
     a98:	00089e63          	bnez	a7,ab4 <__gesf2+0x64>
     a9c:	00008067          	ret
     aa0:	06089263          	bnez	a7,b04 <__gesf2+0xb4>
     aa4:	02d61863          	bne	a2,a3,ad4 <__gesf2+0x84>
     aa8:	04071e63          	bnez	a4,b04 <__gesf2+0xb4>
     aac:	00068c63          	beqz	a3,ac4 <__gesf2+0x74>
     ab0:	02a78863          	beq	a5,a0,ae0 <__gesf2+0x90>
     ab4:	00100513          	li	a0,1
     ab8:	fe0782e3          	beqz	a5,a9c <__gesf2+0x4c>
     abc:	fff00513          	li	a0,-1
     ac0:	00008067          	ret
     ac4:	0018b593          	seqz	a1,a7
     ac8:	fe0584e3          	beqz	a1,ab0 <__gesf2+0x60>
     acc:	fe0508e3          	beqz	a0,abc <__gesf2+0x6c>
     ad0:	00008067          	ret
     ad4:	fc061ee3          	bnez	a2,ab0 <__gesf2+0x60>
     ad8:	fc071ce3          	bnez	a4,ab0 <__gesf2+0x60>
     adc:	fd9ff06f          	j	ab4 <__gesf2+0x64>
     ae0:	00d64c63          	blt	a2,a3,af8 <__gesf2+0xa8>
     ae4:	fec6c4e3          	blt	a3,a2,acc <__gesf2+0x7c>
     ae8:	01176863          	bltu	a4,a7,af8 <__gesf2+0xa8>
     aec:	fee8e0e3          	bltu	a7,a4,acc <__gesf2+0x7c>
     af0:	00000513          	li	a0,0
     af4:	00008067          	ret
     af8:	fc0512e3          	bnez	a0,abc <__gesf2+0x6c>
     afc:	00100513          	li	a0,1
     b00:	00008067          	ret
     b04:	ffe00513          	li	a0,-2
     b08:	00008067          	ret

00000b0c <__lesf2>:
     b0c:	01755693          	srli	a3,a0,0x17
     b10:	00800737          	lui	a4,0x800
     b14:	fff70713          	addi	a4,a4,-1 # 7fffff <_stack_start+0x7fcfff>
     b18:	0175d613          	srli	a2,a1,0x17
     b1c:	0ff6f693          	andi	a3,a3,255
     b20:	0ff00813          	li	a6,255
     b24:	00a778b3          	and	a7,a4,a0
     b28:	01f55793          	srli	a5,a0,0x1f
     b2c:	00b77733          	and	a4,a4,a1
     b30:	0ff67613          	andi	a2,a2,255
     b34:	01f5d513          	srli	a0,a1,0x1f
     b38:	03068263          	beq	a3,a6,b5c <__lesf2+0x50>
     b3c:	03060463          	beq	a2,a6,b64 <__lesf2+0x58>
     b40:	04069c63          	bnez	a3,b98 <__lesf2+0x8c>
     b44:	0018b593          	seqz	a1,a7
     b48:	02061463          	bnez	a2,b70 <__lesf2+0x64>
     b4c:	02071263          	bnez	a4,b70 <__lesf2+0x64>
     b50:	00000513          	li	a0,0
     b54:	02089263          	bnez	a7,b78 <__lesf2+0x6c>
     b58:	00008067          	ret
     b5c:	02089663          	bnez	a7,b88 <__lesf2+0x7c>
     b60:	02d61c63          	bne	a2,a3,b98 <__lesf2+0x8c>
     b64:	02071263          	bnez	a4,b88 <__lesf2+0x7c>
     b68:	00069663          	bnez	a3,b74 <__lesf2+0x68>
     b6c:	0018b593          	seqz	a1,a7
     b70:	02059063          	bnez	a1,b90 <__lesf2+0x84>
     b74:	02a78863          	beq	a5,a0,ba4 <__lesf2+0x98>
     b78:	00100513          	li	a0,1
     b7c:	fc078ee3          	beqz	a5,b58 <__lesf2+0x4c>
     b80:	fff00513          	li	a0,-1
     b84:	00008067          	ret
     b88:	00200513          	li	a0,2
     b8c:	00008067          	ret
     b90:	fe0508e3          	beqz	a0,b80 <__lesf2+0x74>
     b94:	00008067          	ret
     b98:	fc061ee3          	bnez	a2,b74 <__lesf2+0x68>
     b9c:	fc071ce3          	bnez	a4,b74 <__lesf2+0x68>
     ba0:	fd9ff06f          	j	b78 <__lesf2+0x6c>
     ba4:	00d64c63          	blt	a2,a3,bbc <__lesf2+0xb0>
     ba8:	fec6c4e3          	blt	a3,a2,b90 <__lesf2+0x84>
     bac:	01176863          	bltu	a4,a7,bbc <__lesf2+0xb0>
     bb0:	fee8e0e3          	bltu	a7,a4,b90 <__lesf2+0x84>
     bb4:	00000513          	li	a0,0
     bb8:	00008067          	ret
     bbc:	fc0512e3          	bnez	a0,b80 <__lesf2+0x74>
     bc0:	00100513          	li	a0,1
     bc4:	00008067          	ret

00000bc8 <__mulsf3>:
     bc8:	fd010113          	addi	sp,sp,-48
     bcc:	02912223          	sw	s1,36(sp)
     bd0:	01755493          	srli	s1,a0,0x17
     bd4:	02812423          	sw	s0,40(sp)
     bd8:	01512a23          	sw	s5,20(sp)
     bdc:	00951413          	slli	s0,a0,0x9
     be0:	02112623          	sw	ra,44(sp)
     be4:	03212023          	sw	s2,32(sp)
     be8:	01312e23          	sw	s3,28(sp)
     bec:	01412c23          	sw	s4,24(sp)
     bf0:	01612823          	sw	s6,16(sp)
     bf4:	0ff4f493          	andi	s1,s1,255
     bf8:	00945413          	srli	s0,s0,0x9
     bfc:	01f55a93          	srli	s5,a0,0x1f
     c00:	10048a63          	beqz	s1,d14 <__mulsf3+0x14c>
     c04:	0ff00793          	li	a5,255
     c08:	14f48263          	beq	s1,a5,d4c <__mulsf3+0x184>
     c0c:	00341413          	slli	s0,s0,0x3
     c10:	040007b7          	lui	a5,0x4000
     c14:	00f46433          	or	s0,s0,a5
     c18:	f8148493          	addi	s1,s1,-127
     c1c:	00000993          	li	s3,0
     c20:	00000b13          	li	s6,0
     c24:	0175d793          	srli	a5,a1,0x17
     c28:	00959a13          	slli	s4,a1,0x9
     c2c:	0ff7f793          	andi	a5,a5,255
     c30:	009a5a13          	srli	s4,s4,0x9
     c34:	01f5d913          	srli	s2,a1,0x1f
     c38:	10078263          	beqz	a5,d3c <__mulsf3+0x174>
     c3c:	0ff00713          	li	a4,255
     c40:	04e78463          	beq	a5,a4,c88 <__mulsf3+0xc0>
     c44:	003a1a13          	slli	s4,s4,0x3
     c48:	f8178793          	addi	a5,a5,-127 # 3ffff81 <_stack_start+0x3ffcf81>
     c4c:	04000737          	lui	a4,0x4000
     c50:	00ea6a33          	or	s4,s4,a4
     c54:	00f484b3          	add	s1,s1,a5
     c58:	00000593          	li	a1,0
     c5c:	012ac6b3          	xor	a3,s5,s2
     c60:	00f00793          	li	a5,15
     c64:	00068713          	mv	a4,a3
     c68:	00148613          	addi	a2,s1,1
     c6c:	0f37ea63          	bltu	a5,s3,d60 <__mulsf3+0x198>
     c70:	000017b7          	lui	a5,0x1
     c74:	44c78793          	addi	a5,a5,1100 # 144c <get_switches+0x88>
     c78:	00299993          	slli	s3,s3,0x2
     c7c:	00f989b3          	add	s3,s3,a5
     c80:	0009a783          	lw	a5,0(s3)
     c84:	00078067          	jr	a5
     c88:	0ff48493          	addi	s1,s1,255
     c8c:	1c0a1263          	bnez	s4,e50 <__mulsf3+0x288>
     c90:	0029e993          	ori	s3,s3,2
     c94:	00200593          	li	a1,2
     c98:	fc5ff06f          	j	c5c <__mulsf3+0x94>
     c9c:	00090713          	mv	a4,s2
     ca0:	000a0413          	mv	s0,s4
     ca4:	00058b13          	mv	s6,a1
     ca8:	00200793          	li	a5,2
     cac:	18fb0663          	beq	s6,a5,e38 <__mulsf3+0x270>
     cb0:	00300793          	li	a5,3
     cb4:	04fb0863          	beq	s6,a5,d04 <__mulsf3+0x13c>
     cb8:	00100793          	li	a5,1
     cbc:	00070693          	mv	a3,a4
     cc0:	12fb1463          	bne	s6,a5,de8 <__mulsf3+0x220>
     cc4:	00000513          	li	a0,0
     cc8:	00000713          	li	a4,0
     ccc:	01751413          	slli	s0,a0,0x17
     cd0:	00e46433          	or	s0,s0,a4
     cd4:	01f69513          	slli	a0,a3,0x1f
     cd8:	02c12083          	lw	ra,44(sp)
     cdc:	00a46533          	or	a0,s0,a0
     ce0:	02812403          	lw	s0,40(sp)
     ce4:	02412483          	lw	s1,36(sp)
     ce8:	02012903          	lw	s2,32(sp)
     cec:	01c12983          	lw	s3,28(sp)
     cf0:	01812a03          	lw	s4,24(sp)
     cf4:	01412a83          	lw	s5,20(sp)
     cf8:	01012b03          	lw	s6,16(sp)
     cfc:	03010113          	addi	sp,sp,48
     d00:	00008067          	ret
     d04:	00000693          	li	a3,0
     d08:	0ff00513          	li	a0,255
     d0c:	00400737          	lui	a4,0x400
     d10:	fbdff06f          	j	ccc <__mulsf3+0x104>
     d14:	16041c63          	bnez	s0,e8c <__mulsf3+0x2c4>
     d18:	0175d793          	srli	a5,a1,0x17
     d1c:	00959a13          	slli	s4,a1,0x9
     d20:	0ff7f793          	andi	a5,a5,255
     d24:	00400993          	li	s3,4
     d28:	00000493          	li	s1,0
     d2c:	00100b13          	li	s6,1
     d30:	009a5a13          	srli	s4,s4,0x9
     d34:	01f5d913          	srli	s2,a1,0x1f
     d38:	f00792e3          	bnez	a5,c3c <__mulsf3+0x74>
     d3c:	120a1063          	bnez	s4,e5c <__mulsf3+0x294>
     d40:	0019e993          	ori	s3,s3,1
     d44:	00100593          	li	a1,1
     d48:	f15ff06f          	j	c5c <__mulsf3+0x94>
     d4c:	12041863          	bnez	s0,e7c <__mulsf3+0x2b4>
     d50:	00800993          	li	s3,8
     d54:	0ff00493          	li	s1,255
     d58:	00200b13          	li	s6,2
     d5c:	ec9ff06f          	j	c24 <__mulsf3+0x5c>
     d60:	000108b7          	lui	a7,0x10
     d64:	fff88713          	addi	a4,a7,-1 # ffff <_stack_start+0xcfff>
     d68:	01045593          	srli	a1,s0,0x10
     d6c:	010a5813          	srli	a6,s4,0x10
     d70:	00e47433          	and	s0,s0,a4
     d74:	00ea7a33          	and	s4,s4,a4
     d78:	028a0533          	mul	a0,s4,s0
     d7c:	03458a33          	mul	s4,a1,s4
     d80:	01055713          	srli	a4,a0,0x10
     d84:	02880433          	mul	s0,a6,s0
     d88:	014407b3          	add	a5,s0,s4
     d8c:	00f707b3          	add	a5,a4,a5
     d90:	030585b3          	mul	a1,a1,a6
     d94:	0147f463          	bgeu	a5,s4,d9c <__mulsf3+0x1d4>
     d98:	011585b3          	add	a1,a1,a7
     d9c:	00010837          	lui	a6,0x10
     da0:	fff80813          	addi	a6,a6,-1 # ffff <_stack_start+0xcfff>
     da4:	0107f733          	and	a4,a5,a6
     da8:	01071713          	slli	a4,a4,0x10
     dac:	01057533          	and	a0,a0,a6
     db0:	00a70733          	add	a4,a4,a0
     db4:	00671413          	slli	s0,a4,0x6
     db8:	0107d793          	srli	a5,a5,0x10
     dbc:	00803433          	snez	s0,s0
     dc0:	01a75713          	srli	a4,a4,0x1a
     dc4:	00b787b3          	add	a5,a5,a1
     dc8:	00e46733          	or	a4,s0,a4
     dcc:	00679793          	slli	a5,a5,0x6
     dd0:	00e7e433          	or	s0,a5,a4
     dd4:	00479713          	slli	a4,a5,0x4
     dd8:	14075463          	bgez	a4,f20 <__mulsf3+0x358>
     ddc:	00145793          	srli	a5,s0,0x1
     de0:	00147413          	andi	s0,s0,1
     de4:	0087e433          	or	s0,a5,s0
     de8:	07f60793          	addi	a5,a2,127
     dec:	0cf05663          	blez	a5,eb8 <__mulsf3+0x2f0>
     df0:	00747713          	andi	a4,s0,7
     df4:	00070a63          	beqz	a4,e08 <__mulsf3+0x240>
     df8:	00f47713          	andi	a4,s0,15
     dfc:	00400593          	li	a1,4
     e00:	00b70463          	beq	a4,a1,e08 <__mulsf3+0x240>
     e04:	00440413          	addi	s0,s0,4
     e08:	00441713          	slli	a4,s0,0x4
     e0c:	00075a63          	bgez	a4,e20 <__mulsf3+0x258>
     e10:	f80007b7          	lui	a5,0xf8000
     e14:	fff78793          	addi	a5,a5,-1 # f7ffffff <_stack_start+0xf7ffcfff>
     e18:	00f47433          	and	s0,s0,a5
     e1c:	08060793          	addi	a5,a2,128
     e20:	0fe00713          	li	a4,254
     e24:	0ef74863          	blt	a4,a5,f14 <__mulsf3+0x34c>
     e28:	00641413          	slli	s0,s0,0x6
     e2c:	00945713          	srli	a4,s0,0x9
     e30:	0ff7f513          	andi	a0,a5,255
     e34:	e99ff06f          	j	ccc <__mulsf3+0x104>
     e38:	00070693          	mv	a3,a4
     e3c:	0ff00513          	li	a0,255
     e40:	00000713          	li	a4,0
     e44:	e89ff06f          	j	ccc <__mulsf3+0x104>
     e48:	000a8713          	mv	a4,s5
     e4c:	e5dff06f          	j	ca8 <__mulsf3+0xe0>
     e50:	0039e993          	ori	s3,s3,3
     e54:	00300593          	li	a1,3
     e58:	e05ff06f          	j	c5c <__mulsf3+0x94>
     e5c:	000a0513          	mv	a0,s4
     e60:	9a0ff0ef          	jal	ra,0 <__clzsi2>
     e64:	ffb50793          	addi	a5,a0,-5
     e68:	40a484b3          	sub	s1,s1,a0
     e6c:	00fa1a33          	sll	s4,s4,a5
     e70:	f8a48493          	addi	s1,s1,-118
     e74:	00000593          	li	a1,0
     e78:	de5ff06f          	j	c5c <__mulsf3+0x94>
     e7c:	00c00993          	li	s3,12
     e80:	0ff00493          	li	s1,255
     e84:	00300b13          	li	s6,3
     e88:	d9dff06f          	j	c24 <__mulsf3+0x5c>
     e8c:	00040513          	mv	a0,s0
     e90:	00b12623          	sw	a1,12(sp)
     e94:	96cff0ef          	jal	ra,0 <__clzsi2>
     e98:	ffb50793          	addi	a5,a0,-5
     e9c:	f8a00493          	li	s1,-118
     ea0:	00c12583          	lw	a1,12(sp)
     ea4:	00f41433          	sll	s0,s0,a5
     ea8:	40a484b3          	sub	s1,s1,a0
     eac:	00000993          	li	s3,0
     eb0:	00000b13          	li	s6,0
     eb4:	d71ff06f          	j	c24 <__mulsf3+0x5c>
     eb8:	00100593          	li	a1,1
     ebc:	40f585b3          	sub	a1,a1,a5
     ec0:	00078a63          	beqz	a5,ed4 <__mulsf3+0x30c>
     ec4:	01b00793          	li	a5,27
     ec8:	00000513          	li	a0,0
     ecc:	00000713          	li	a4,0
     ed0:	deb7cee3          	blt	a5,a1,ccc <__mulsf3+0x104>
     ed4:	09e60793          	addi	a5,a2,158
     ed8:	00f417b3          	sll	a5,s0,a5
     edc:	00f037b3          	snez	a5,a5
     ee0:	00b45433          	srl	s0,s0,a1
     ee4:	00f46433          	or	s0,s0,a5
     ee8:	00747793          	andi	a5,s0,7
     eec:	00078a63          	beqz	a5,f00 <__mulsf3+0x338>
     ef0:	00f47793          	andi	a5,s0,15
     ef4:	00400713          	li	a4,4
     ef8:	00e78463          	beq	a5,a4,f00 <__mulsf3+0x338>
     efc:	00440413          	addi	s0,s0,4
     f00:	00541793          	slli	a5,s0,0x5
     f04:	0207d263          	bgez	a5,f28 <__mulsf3+0x360>
     f08:	00100513          	li	a0,1
     f0c:	00000713          	li	a4,0
     f10:	dbdff06f          	j	ccc <__mulsf3+0x104>
     f14:	0ff00513          	li	a0,255
     f18:	00000713          	li	a4,0
     f1c:	db1ff06f          	j	ccc <__mulsf3+0x104>
     f20:	00048613          	mv	a2,s1
     f24:	ec5ff06f          	j	de8 <__mulsf3+0x220>
     f28:	00641413          	slli	s0,s0,0x6
     f2c:	00945713          	srli	a4,s0,0x9
     f30:	00000513          	li	a0,0
     f34:	d99ff06f          	j	ccc <__mulsf3+0x104>

00000f38 <__subsf3>:
     f38:	008006b7          	lui	a3,0x800
     f3c:	ff010113          	addi	sp,sp,-16
     f40:	0175d613          	srli	a2,a1,0x17
     f44:	fff68693          	addi	a3,a3,-1 # 7fffff <_stack_start+0x7fcfff>
     f48:	01755793          	srli	a5,a0,0x17
     f4c:	00a6f733          	and	a4,a3,a0
     f50:	0ff7f793          	andi	a5,a5,255
     f54:	00b6f6b3          	and	a3,a3,a1
     f58:	0ff67893          	andi	a7,a2,255
     f5c:	00912223          	sw	s1,4(sp)
     f60:	01212023          	sw	s2,0(sp)
     f64:	01f55513          	srli	a0,a0,0x1f
     f68:	00112623          	sw	ra,12(sp)
     f6c:	00812423          	sw	s0,8(sp)
     f70:	0ff00813          	li	a6,255
     f74:	00070613          	mv	a2,a4
     f78:	00078913          	mv	s2,a5
     f7c:	00050493          	mv	s1,a0
     f80:	00371313          	slli	t1,a4,0x3
     f84:	01f5d593          	srli	a1,a1,0x1f
     f88:	00369e13          	slli	t3,a3,0x3
     f8c:	41178eb3          	sub	t4,a5,a7
     f90:	15088063          	beq	a7,a6,10d0 <__subsf3+0x198>
     f94:	0015c593          	xori	a1,a1,1
     f98:	14b50c63          	beq	a0,a1,10f0 <__subsf3+0x1b8>
     f9c:	0fd05c63          	blez	t4,1094 <__subsf3+0x15c>
     fa0:	12089e63          	bnez	a7,10dc <__subsf3+0x1a4>
     fa4:	240e0863          	beqz	t3,11f4 <__subsf3+0x2bc>
     fa8:	fffe8e93          	addi	t4,t4,-1
     fac:	41c30733          	sub	a4,t1,t3
     fb0:	020e8a63          	beqz	t4,fe4 <__subsf3+0xac>
     fb4:	0ff00713          	li	a4,255
     fb8:	10e78263          	beq	a5,a4,10bc <__subsf3+0x184>
     fbc:	01b00793          	li	a5,27
     fc0:	00100713          	li	a4,1
     fc4:	01d7ce63          	blt	a5,t4,fe0 <__subsf3+0xa8>
     fc8:	02000793          	li	a5,32
     fcc:	41d787b3          	sub	a5,a5,t4
     fd0:	00fe17b3          	sll	a5,t3,a5
     fd4:	01de5733          	srl	a4,t3,t4
     fd8:	00f037b3          	snez	a5,a5
     fdc:	00f76733          	or	a4,a4,a5
     fe0:	40e30733          	sub	a4,t1,a4
     fe4:	00571793          	slli	a5,a4,0x5
     fe8:	2007d063          	bgez	a5,11e8 <__subsf3+0x2b0>
     fec:	04000437          	lui	s0,0x4000
     ff0:	fff40413          	addi	s0,s0,-1 # 3ffffff <_stack_start+0x3ffcfff>
     ff4:	00877433          	and	s0,a4,s0
     ff8:	00040513          	mv	a0,s0
     ffc:	804ff0ef          	jal	ra,0 <__clzsi2>
    1000:	ffb50513          	addi	a0,a0,-5
    1004:	00a41733          	sll	a4,s0,a0
    1008:	27254463          	blt	a0,s2,1270 <__subsf3+0x338>
    100c:	41250533          	sub	a0,a0,s2
    1010:	00150413          	addi	s0,a0,1
    1014:	02000793          	li	a5,32
    1018:	408787b3          	sub	a5,a5,s0
    101c:	00f717b3          	sll	a5,a4,a5
    1020:	00f037b3          	snez	a5,a5
    1024:	00875733          	srl	a4,a4,s0
    1028:	00f76733          	or	a4,a4,a5
    102c:	00000913          	li	s2,0
    1030:	00777793          	andi	a5,a4,7
    1034:	00078a63          	beqz	a5,1048 <__subsf3+0x110>
    1038:	00f77693          	andi	a3,a4,15
    103c:	00400793          	li	a5,4
    1040:	00f68463          	beq	a3,a5,1048 <__subsf3+0x110>
    1044:	00470713          	addi	a4,a4,4 # 400004 <_stack_start+0x3fd004>
    1048:	00571793          	slli	a5,a4,0x5
    104c:	1a07d263          	bgez	a5,11f0 <__subsf3+0x2b8>
    1050:	00190793          	addi	a5,s2,1
    1054:	0ff00693          	li	a3,255
    1058:	0014f513          	andi	a0,s1,1
    105c:	1ad78c63          	beq	a5,a3,1214 <__subsf3+0x2dc>
    1060:	00671713          	slli	a4,a4,0x6
    1064:	00975713          	srli	a4,a4,0x9
    1068:	0ff7f793          	andi	a5,a5,255
    106c:	00c12083          	lw	ra,12(sp)
    1070:	00812403          	lw	s0,8(sp)
    1074:	01779793          	slli	a5,a5,0x17
    1078:	00e7e733          	or	a4,a5,a4
    107c:	01f51513          	slli	a0,a0,0x1f
    1080:	00412483          	lw	s1,4(sp)
    1084:	00012903          	lw	s2,0(sp)
    1088:	00a76533          	or	a0,a4,a0
    108c:	01010113          	addi	sp,sp,16
    1090:	00008067          	ret
    1094:	0c0e8663          	beqz	t4,1160 <__subsf3+0x228>
    1098:	40f88633          	sub	a2,a7,a5
    109c:	20079463          	bnez	a5,12a4 <__subsf3+0x36c>
    10a0:	26030e63          	beqz	t1,131c <__subsf3+0x3e4>
    10a4:	fff60613          	addi	a2,a2,-1
    10a8:	2a060063          	beqz	a2,1348 <__subsf3+0x410>
    10ac:	0ff00793          	li	a5,255
    10b0:	20f89263          	bne	a7,a5,12b4 <__subsf3+0x37c>
    10b4:	00058493          	mv	s1,a1
    10b8:	00068613          	mv	a2,a3
    10bc:	14060a63          	beqz	a2,1210 <__subsf3+0x2d8>
    10c0:	00000513          	li	a0,0
    10c4:	0ff00793          	li	a5,255
    10c8:	00400737          	lui	a4,0x400
    10cc:	fa1ff06f          	j	106c <__subsf3+0x134>
    10d0:	ec0e02e3          	beqz	t3,f94 <__subsf3+0x5c>
    10d4:	14b50663          	beq	a0,a1,1220 <__subsf3+0x2e8>
    10d8:	fbd05ee3          	blez	t4,1094 <__subsf3+0x15c>
    10dc:	0ff00713          	li	a4,255
    10e0:	fce78ee3          	beq	a5,a4,10bc <__subsf3+0x184>
    10e4:	040007b7          	lui	a5,0x4000
    10e8:	00fe6e33          	or	t3,t3,a5
    10ec:	ed1ff06f          	j	fbc <__subsf3+0x84>
    10f0:	13d05863          	blez	t4,1220 <__subsf3+0x2e8>
    10f4:	0a088063          	beqz	a7,1194 <__subsf3+0x25c>
    10f8:	0ff00713          	li	a4,255
    10fc:	fce780e3          	beq	a5,a4,10bc <__subsf3+0x184>
    1100:	040007b7          	lui	a5,0x4000
    1104:	00fe6e33          	or	t3,t3,a5
    1108:	01b00793          	li	a5,27
    110c:	00100713          	li	a4,1
    1110:	01d7ce63          	blt	a5,t4,112c <__subsf3+0x1f4>
    1114:	02000793          	li	a5,32
    1118:	41d787b3          	sub	a5,a5,t4
    111c:	00fe17b3          	sll	a5,t3,a5
    1120:	01de5733          	srl	a4,t3,t4
    1124:	00f037b3          	snez	a5,a5
    1128:	00f76733          	or	a4,a4,a5
    112c:	00670733          	add	a4,a4,t1
    1130:	00571793          	slli	a5,a4,0x5
    1134:	0a07da63          	bgez	a5,11e8 <__subsf3+0x2b0>
    1138:	00190913          	addi	s2,s2,1
    113c:	0ff00793          	li	a5,255
    1140:	0cf90a63          	beq	s2,a5,1214 <__subsf3+0x2dc>
    1144:	7e0006b7          	lui	a3,0x7e000
    1148:	00175793          	srli	a5,a4,0x1
    114c:	fff68693          	addi	a3,a3,-1 # 7dffffff <_stack_start+0x7dffcfff>
    1150:	00177713          	andi	a4,a4,1
    1154:	00d7f7b3          	and	a5,a5,a3
    1158:	00e7e733          	or	a4,a5,a4
    115c:	ed5ff06f          	j	1030 <__subsf3+0xf8>
    1160:	00178813          	addi	a6,a5,1 # 4000001 <_stack_start+0x3ffd001>
    1164:	0fe87813          	andi	a6,a6,254
    1168:	10081e63          	bnez	a6,1284 <__subsf3+0x34c>
    116c:	1c079063          	bnez	a5,132c <__subsf3+0x3f4>
    1170:	1e030463          	beqz	t1,1358 <__subsf3+0x420>
    1174:	ee0e0ce3          	beqz	t3,106c <__subsf3+0x134>
    1178:	41c30733          	sub	a4,t1,t3
    117c:	00571693          	slli	a3,a4,0x5
    1180:	1e06da63          	bgez	a3,1374 <__subsf3+0x43c>
    1184:	406e0733          	sub	a4,t3,t1
    1188:	00000913          	li	s2,0
    118c:	00058493          	mv	s1,a1
    1190:	ea1ff06f          	j	1030 <__subsf3+0xf8>
    1194:	060e0063          	beqz	t3,11f4 <__subsf3+0x2bc>
    1198:	fffe8e93          	addi	t4,t4,-1
    119c:	01c30733          	add	a4,t1,t3
    11a0:	f80e88e3          	beqz	t4,1130 <__subsf3+0x1f8>
    11a4:	0ff00713          	li	a4,255
    11a8:	f6e790e3          	bne	a5,a4,1108 <__subsf3+0x1d0>
    11ac:	f11ff06f          	j	10bc <__subsf3+0x184>
    11b0:	00178913          	addi	s2,a5,1
    11b4:	0fe97593          	andi	a1,s2,254
    11b8:	14059263          	bnez	a1,12fc <__subsf3+0x3c4>
    11bc:	18079063          	bnez	a5,133c <__subsf3+0x404>
    11c0:	1c030463          	beqz	t1,1388 <__subsf3+0x450>
    11c4:	ea0e04e3          	beqz	t3,106c <__subsf3+0x134>
    11c8:	01c30733          	add	a4,t1,t3
    11cc:	00571793          	slli	a5,a4,0x5
    11d0:	00000913          	li	s2,0
    11d4:	0007da63          	bgez	a5,11e8 <__subsf3+0x2b0>
    11d8:	fc0007b7          	lui	a5,0xfc000
    11dc:	fff78793          	addi	a5,a5,-1 # fbffffff <_stack_start+0xfbffcfff>
    11e0:	00f77733          	and	a4,a4,a5
    11e4:	00100913          	li	s2,1
    11e8:	00777793          	andi	a5,a4,7
    11ec:	e40796e3          	bnez	a5,1038 <__subsf3+0x100>
    11f0:	00375613          	srli	a2,a4,0x3
    11f4:	0ff00793          	li	a5,255
    11f8:	ecf902e3          	beq	s2,a5,10bc <__subsf3+0x184>
    11fc:	00961713          	slli	a4,a2,0x9
    1200:	00975713          	srli	a4,a4,0x9
    1204:	0ff97793          	andi	a5,s2,255
    1208:	0014f513          	andi	a0,s1,1
    120c:	e61ff06f          	j	106c <__subsf3+0x134>
    1210:	0014f513          	andi	a0,s1,1
    1214:	0ff00793          	li	a5,255
    1218:	00000713          	li	a4,0
    121c:	e51ff06f          	j	106c <__subsf3+0x134>
    1220:	f80e88e3          	beqz	t4,11b0 <__subsf3+0x278>
    1224:	40f88733          	sub	a4,a7,a5
    1228:	0c079063          	bnez	a5,12e8 <__subsf3+0x3b0>
    122c:	12030e63          	beqz	t1,1368 <__subsf3+0x430>
    1230:	fff70713          	addi	a4,a4,-1 # 3fffff <_stack_start+0x3fcfff>
    1234:	14070e63          	beqz	a4,1390 <__subsf3+0x458>
    1238:	0ff00793          	li	a5,255
    123c:	e6f88ee3          	beq	a7,a5,10b8 <__subsf3+0x180>
    1240:	01b00693          	li	a3,27
    1244:	00100793          	li	a5,1
    1248:	00e6ce63          	blt	a3,a4,1264 <__subsf3+0x32c>
    124c:	02000793          	li	a5,32
    1250:	40e787b3          	sub	a5,a5,a4
    1254:	00f317b3          	sll	a5,t1,a5
    1258:	00e35733          	srl	a4,t1,a4
    125c:	00f037b3          	snez	a5,a5
    1260:	00f767b3          	or	a5,a4,a5
    1264:	01c78733          	add	a4,a5,t3
    1268:	00088913          	mv	s2,a7
    126c:	ec5ff06f          	j	1130 <__subsf3+0x1f8>
    1270:	fc0007b7          	lui	a5,0xfc000
    1274:	fff78793          	addi	a5,a5,-1 # fbffffff <_stack_start+0xfbffcfff>
    1278:	40a90933          	sub	s2,s2,a0
    127c:	00f77733          	and	a4,a4,a5
    1280:	db1ff06f          	j	1030 <__subsf3+0xf8>
    1284:	41c30433          	sub	s0,t1,t3
    1288:	00541793          	slli	a5,s0,0x5
    128c:	0807c263          	bltz	a5,1310 <__subsf3+0x3d8>
    1290:	d60414e3          	bnez	s0,ff8 <__subsf3+0xc0>
    1294:	00000513          	li	a0,0
    1298:	00000793          	li	a5,0
    129c:	00000713          	li	a4,0
    12a0:	dcdff06f          	j	106c <__subsf3+0x134>
    12a4:	0ff00793          	li	a5,255
    12a8:	e0f886e3          	beq	a7,a5,10b4 <__subsf3+0x17c>
    12ac:	040007b7          	lui	a5,0x4000
    12b0:	00f36333          	or	t1,t1,a5
    12b4:	01b00793          	li	a5,27
    12b8:	00100713          	li	a4,1
    12bc:	00c7ce63          	blt	a5,a2,12d8 <__subsf3+0x3a0>
    12c0:	02000793          	li	a5,32
    12c4:	40c787b3          	sub	a5,a5,a2
    12c8:	00f317b3          	sll	a5,t1,a5
    12cc:	00c35733          	srl	a4,t1,a2
    12d0:	00f037b3          	snez	a5,a5
    12d4:	00f76733          	or	a4,a4,a5
    12d8:	40ee0733          	sub	a4,t3,a4
    12dc:	00088913          	mv	s2,a7
    12e0:	00058493          	mv	s1,a1
    12e4:	d01ff06f          	j	fe4 <__subsf3+0xac>
    12e8:	0ff00793          	li	a5,255
    12ec:	dcf886e3          	beq	a7,a5,10b8 <__subsf3+0x180>
    12f0:	040007b7          	lui	a5,0x4000
    12f4:	00f36333          	or	t1,t1,a5
    12f8:	f49ff06f          	j	1240 <__subsf3+0x308>
    12fc:	0ff00793          	li	a5,255
    1300:	f0f90ae3          	beq	s2,a5,1214 <__subsf3+0x2dc>
    1304:	01c30733          	add	a4,t1,t3
    1308:	00175713          	srli	a4,a4,0x1
    130c:	eddff06f          	j	11e8 <__subsf3+0x2b0>
    1310:	406e0433          	sub	s0,t3,t1
    1314:	00058493          	mv	s1,a1
    1318:	ce1ff06f          	j	ff8 <__subsf3+0xc0>
    131c:	00068613          	mv	a2,a3
    1320:	00088913          	mv	s2,a7
    1324:	00058493          	mv	s1,a1
    1328:	ecdff06f          	j	11f4 <__subsf3+0x2bc>
    132c:	00031a63          	bnez	t1,1340 <__subsf3+0x408>
    1330:	d80e08e3          	beqz	t3,10c0 <__subsf3+0x188>
    1334:	00058493          	mv	s1,a1
    1338:	d81ff06f          	j	10b8 <__subsf3+0x180>
    133c:	d6030ee3          	beqz	t1,10b8 <__subsf3+0x180>
    1340:	d60e0ee3          	beqz	t3,10bc <__subsf3+0x184>
    1344:	d7dff06f          	j	10c0 <__subsf3+0x188>
    1348:	406e0733          	sub	a4,t3,t1
    134c:	00088913          	mv	s2,a7
    1350:	00058493          	mv	s1,a1
    1354:	c91ff06f          	j	fe4 <__subsf3+0xac>
    1358:	020e0263          	beqz	t3,137c <__subsf3+0x444>
    135c:	00058513          	mv	a0,a1
    1360:	00068713          	mv	a4,a3
    1364:	d09ff06f          	j	106c <__subsf3+0x134>
    1368:	00068613          	mv	a2,a3
    136c:	00088913          	mv	s2,a7
    1370:	e85ff06f          	j	11f4 <__subsf3+0x2bc>
    1374:	00000913          	li	s2,0
    1378:	e60718e3          	bnez	a4,11e8 <__subsf3+0x2b0>
    137c:	00000513          	li	a0,0
    1380:	00000713          	li	a4,0
    1384:	ce9ff06f          	j	106c <__subsf3+0x134>
    1388:	00068713          	mv	a4,a3
    138c:	ce1ff06f          	j	106c <__subsf3+0x134>
    1390:	01c30733          	add	a4,t1,t3
    1394:	00088913          	mv	s2,a7
    1398:	d99ff06f          	j	1130 <__subsf3+0x1f8>

0000139c <putpix>:
    139c:	7c451073          	csrw	0x7c4,a0
    13a0:	7c559073          	csrw	0x7c5,a1
    13a4:	7c70d073          	csrwi	0x7c7,1
    13a8:	00008067          	ret

000013ac <put_leds>:
    13ac:	7c151073          	csrw	0x7c1,a0
    13b0:	00008067          	ret

000013b4 <put_ssd>:
    13b4:	7c251073          	csrw	0x7c2,a0
    13b8:	00008067          	ret

000013bc <get_btns>:
    13bc:	fc302573          	csrr	a0,0xfc3
    13c0:	00008067          	ret

000013c4 <get_switches>:
    13c4:	fc202573          	csrr	a0,0xfc2
    13c8:	00008067          	ret
    13cc:	0760                	addi	s0,sp,908
    13ce:	0000                	unimp
    13d0:	05c4                	addi	s1,sp,708
    13d2:	0000                	unimp
    13d4:	0684                	addi	s1,sp,832
    13d6:	0000                	unimp
    13d8:	0550                	addi	a2,sp,644
    13da:	0000                	unimp
    13dc:	0684                	addi	s1,sp,832
    13de:	0000                	unimp
    13e0:	0578                	addi	a4,sp,652
    13e2:	0000                	unimp
    13e4:	0684                	addi	s1,sp,832
    13e6:	0000                	unimp
    13e8:	0550                	addi	a2,sp,644
    13ea:	0000                	unimp
    13ec:	05c4                	addi	s1,sp,708
    13ee:	0000                	unimp
    13f0:	05c4                	addi	s1,sp,708
    13f2:	0000                	unimp
    13f4:	0578                	addi	a4,sp,652
    13f6:	0000                	unimp
    13f8:	0550                	addi	a2,sp,644
    13fa:	0000                	unimp
    13fc:	055c                	addi	a5,sp,644
    13fe:	0000                	unimp
    1400:	055c                	addi	a5,sp,644
    1402:	0000                	unimp
    1404:	055c                	addi	a5,sp,644
    1406:	0000                	unimp
    1408:	0578                	addi	a4,sp,652
    140a:	0000                	unimp
    140c:	05c4                	addi	s1,sp,708
    140e:	0000                	unimp
    1410:	05c4                	addi	s1,sp,708
    1412:	0000                	unimp
    1414:	0684                	addi	s1,sp,832
    1416:	0000                	unimp
    1418:	06f4                	addi	a3,sp,844
    141a:	0000                	unimp
    141c:	0684                	addi	s1,sp,832
    141e:	0000                	unimp
    1420:	0578                	addi	a4,sp,652
    1422:	0000                	unimp
    1424:	0684                	addi	s1,sp,832
    1426:	0000                	unimp
    1428:	06f4                	addi	a3,sp,844
    142a:	0000                	unimp
    142c:	05c4                	addi	s1,sp,708
    142e:	0000                	unimp
    1430:	05c4                	addi	s1,sp,708
    1432:	0000                	unimp
    1434:	0578                	addi	a4,sp,652
    1436:	0000                	unimp
    1438:	06f4                	addi	a3,sp,844
    143a:	0000                	unimp
    143c:	055c                	addi	a5,sp,644
    143e:	0000                	unimp
    1440:	055c                	addi	a5,sp,644
    1442:	0000                	unimp
    1444:	055c                	addi	a5,sp,644
    1446:	0000                	unimp
    1448:	0578                	addi	a4,sp,652
    144a:	0000                	unimp
    144c:	0d60                	addi	s0,sp,668
    144e:	0000                	unimp
    1450:	0ca0                	addi	s0,sp,600
    1452:	0000                	unimp
    1454:	0ca0                	addi	s0,sp,600
    1456:	0000                	unimp
    1458:	0c9c                	addi	a5,sp,592
    145a:	0000                	unimp
    145c:	0ca8                	addi	a0,sp,600
    145e:	0000                	unimp
    1460:	0ca8                	addi	a0,sp,600
    1462:	0000                	unimp
    1464:	0d04                	addi	s1,sp,656
    1466:	0000                	unimp
    1468:	0c9c                	addi	a5,sp,592
    146a:	0000                	unimp
    146c:	0ca8                	addi	a0,sp,600
    146e:	0000                	unimp
    1470:	0d04                	addi	s1,sp,656
    1472:	0000                	unimp
    1474:	0ca8                	addi	a0,sp,600
    1476:	0000                	unimp
    1478:	0c9c                	addi	a5,sp,592
    147a:	0000                	unimp
    147c:	0e48                	addi	a0,sp,788
    147e:	0000                	unimp
    1480:	0e48                	addi	a0,sp,788
    1482:	0000                	unimp
    1484:	0e48                	addi	a0,sp,788
    1486:	0000                	unimp
    1488:	0d04                	addi	s1,sp,656
	...
